(dp1
I32
(dp2
S'visit_count'
p3
(dp4
(I7
I3
tp5
I0
s(I1
I3
tp6
I0
s(I12
I1
tp7
I0
s(I9
I1
tp8
I0
s(I3
I0
tp9
I0
s(I14
I4
tp10
I0
s(I11
I2
tp11
I0
s(I8
I0
tp12
I0
s(I3
I2
tp13
I0
s(I2
I1
tp14
I0
s(I15
I1
tp15
I0
s(I6
I2
tp16
I0
s(I14
I0
tp17
I0
s(I9
I4
tp18
I0
s(I4
I2
tp19
I0
s(I5
I1
tp20
I0
s(I0
I3
tp21
I32
s(I10
I3
tp22
I0
s(I7
I2
tp23
I0
s(I4
I0
tp24
I29
s(I1
I2
tp25
I0
s(I12
I2
tp26
I0
s(I9
I0
tp27
I1
s(I3
I3
tp28
I0
s(I0
I2
tp29
I0
s(I13
I3
tp30
I0
s(I8
I1
tp31
I0
s(I4
I4
tp32
I31
s(I15
I0
tp33
I0
s(I6
I3
tp34
I0
s(I11
I4
tp35
I0
s(I14
I1
tp36
I0
s(I11
I1
tp37
I0
s(I5
I0
tp38
I0
s(I2
I2
tp39
I0
s(I15
I4
tp40
I0
s(I10
I0
tp41
I0
s(I4
I1
tp42
I0
s(I13
I4
tp43
I0
s(I12
I3
tp44
I0
s(I6
I4
tp45
I0
s(I5
I4
tp46
I0
s(I0
I0
tp47
I0
s(I13
I2
tp48
I0
s(I10
I4
tp49
I0
s(I7
I1
tp50
I0
s(I15
I3
tp51
I0
s(I9
I3
tp52
I0
s(I6
I0
tp53
I0
s(I1
I4
tp54
I0
s(I11
I0
tp55
I0
s(I2
I3
tp56
I0
s(I10
I1
tp57
I0
s(I0
I4
tp58
I0
s(I1
I0
tp59
I0
s(I14
I2
tp60
I0
s(I5
I3
tp61
I0
s(I0
I1
tp62
I0
s(I13
I1
tp63
I0
s(I8
I3
tp64
I0
s(I7
I0
tp65
I0
s(I15
I2
tp66
I0
s(I12
I0
tp67
I0
s(I9
I2
tp68
I0
s(I3
I4
tp69
I0
s(I6
I1
tp70
I0
s(I3
I1
tp71
I0
s(I11
I3
tp72
I0
s(I8
I2
tp73
I1
s(I1
I1
tp74
I0
s(I7
I4
tp75
I0
s(I2
I0
tp76
I0
s(I12
I4
tp77
I0
s(I4
I3
tp78
I2
s(I14
I3
tp79
I0
s(I8
I4
tp80
I0
s(I5
I2
tp81
I0
s(I2
I4
tp82
I0
s(I13
I0
tp83
I0
s(I10
I2
tp84
I0
ssS'query_count'
p85
(dp86
I0
I2
sI1
I0
sI2
I0
sI3
I0
sI4
I1
sI5
I0
sI6
I0
sI7
I0
sI8
I0
sI9
I1
sI10
I0
sI11
I0
sI12
I0
sI13
I0
sI14
I0
sI15
I0
sssI1
(dp87
g3
(dp88
g5
I0
sg6
I0
sg7
I0
sg8
I0
sg9
I0
sg10
I0
sg11
I0
sg12
I0
sg13
I0
sg14
I0
sg15
I0
sg16
I0
sg17
I0
sg18
I0
sg19
I0
sg20
I0
sg21
I1
sg22
I0
sg23
I0
sg24
I1
sg25
I0
sg26
I0
sg27
I0
sg28
I0
sg29
I0
sg30
I0
sg31
I0
sg32
I0
sg33
I0
sg34
I0
sg35
I0
sg36
I0
sg37
I0
sg38
I0
sg39
I0
sg40
I0
sg41
I0
sg42
I0
sg43
I0
sg44
I0
sg45
I0
sg46
I0
sg47
I0
sg48
I0
sg49
I0
sg50
I0
sg51
I0
sg52
I0
sg53
I0
sg54
I0
sg55
I0
sg56
I0
sg57
I0
sg58
I0
sg59
I0
sg60
I0
sg61
I0
sg62
I0
sg63
I0
sg64
I0
sg65
I0
sg66
I0
sg67
I0
sg68
I0
sg69
I0
sg70
I0
sg71
I0
sg72
I0
sg73
I0
sg74
I0
sg75
I0
sg76
I0
sg77
I0
sg78
I0
sg79
I0
sg80
I0
sg81
I0
sg82
I0
sg83
I0
sg84
I0
ssg85
(dp89
I0
I0
sI1
I0
sI2
I0
sI3
I0
sI4
I1
sI5
I0
sI6
I0
sI7
I0
sI8
I0
sI9
I0
sI10
I0
sI11
I0
sI12
I0
sI13
I0
sI14
I0
sI15
I0
sssI2
(dp90
g3
(dp91
g5
I0
sg6
I0
sg7
I0
sg8
I0
sg9
I0
sg10
I0
sg11
I0
sg12
I0
sg13
I0
sg14
I0
sg15
I0
sg16
I0
sg17
I0
sg18
I0
sg19
I0
sg20
I0
sg21
I2
sg22
I0
sg23
I0
sg24
I2
sg25
I0
sg26
I0
sg27
I0
sg28
I0
sg29
I0
sg30
I0
sg31
I0
sg32
I1
sg33
I0
sg34
I0
sg35
I0
sg36
I0
sg37
I0
sg38
I0
sg39
I0
sg40
I0
sg41
I0
sg42
I0
sg43
I0
sg44
I0
sg45
I0
sg46
I0
sg47
I0
sg48
I0
sg49
I0
sg50
I0
sg51
I0
sg52
I0
sg53
I0
sg54
I0
sg55
I0
sg56
I0
sg57
I0
sg58
I0
sg59
I0
sg60
I0
sg61
I0
sg62
I0
sg63
I0
sg64
I0
sg65
I0
sg66
I0
sg67
I0
sg68
I0
sg69
I0
sg70
I0
sg71
I0
sg72
I0
sg73
I0
sg74
I0
sg75
I0
sg76
I0
sg77
I0
sg78
I0
sg79
I0
sg80
I0
sg81
I0
sg82
I0
sg83
I0
sg84
I0
ssg85
(dp92
I0
I1
sI1
I0
sI2
I0
sI3
I0
sI4
I1
sI5
I0
sI6
I0
sI7
I0
sI8
I0
sI9
I0
sI10
I0
sI11
I0
sI12
I0
sI13
I0
sI14
I0
sI15
I0
sssI4
(dp93
g3
(dp94
g5
I0
sg6
I0
sg7
I0
sg8
I0
sg9
I0
sg10
I0
sg11
I0
sg12
I0
sg13
I0
sg14
I0
sg15
I0
sg16
I0
sg17
I0
sg18
I0
sg19
I0
sg20
I0
sg21
I4
sg22
I0
sg23
I0
sg24
I4
sg25
I0
sg26
I0
sg27
I0
sg28
I0
sg29
I0
sg30
I0
sg31
I0
sg32
I5
sg33
I0
sg34
I0
sg35
I0
sg36
I0
sg37
I0
sg38
I0
sg39
I0
sg40
I0
sg41
I0
sg42
I0
sg43
I0
sg44
I0
sg45
I0
sg46
I0
sg47
I0
sg48
I0
sg49
I0
sg50
I0
sg51
I0
sg52
I0
sg53
I0
sg54
I0
sg55
I0
sg56
I0
sg57
I0
sg58
I0
sg59
I0
sg60
I0
sg61
I0
sg62
I0
sg63
I0
sg64
I0
sg65
I0
sg66
I0
sg67
I0
sg68
I0
sg69
I0
sg70
I0
sg71
I0
sg72
I0
sg73
I0
sg74
I0
sg75
I0
sg76
I0
sg77
I0
sg78
I0
sg79
I0
sg80
I0
sg81
I0
sg82
I0
sg83
I0
sg84
I0
ssg85
(dp95
I0
I1
sI1
I0
sI2
I0
sI3
I0
sI4
I1
sI5
I0
sI6
I0
sI7
I0
sI8
I0
sI9
I0
sI10
I0
sI11
I0
sI12
I0
sI13
I0
sI14
I0
sI15
I0
sssI1024
(dp96
g3
(dp97
g5
I0
sg6
I0
sg7
I0
sg8
I0
sg9
I0
sg10
I0
sg11
I0
sg12
I2
sg13
I0
sg14
I0
sg15
I1
sg16
I0
sg17
I3
sg18
I0
sg19
I29
sg20
I24
sg21
I1012
sg22
I546
sg23
I0
sg24
I72
sg25
I0
sg26
I10
sg27
I4
sg28
I0
sg29
I12
sg30
I0
sg31
I0
sg32
I86
sg33
I2
sg34
I0
sg35
I0
sg36
I3
sg37
I0
sg38
I19
sg39
I0
sg40
I0
sg41
I468
sg42
I0
sg43
I0
sg44
I3
sg45
I0
sg46
I2
sg47
I10
sg48
I9
sg49
I93
sg50
I0
sg51
I1
sg52
I0
sg53
I0
sg54
I0
sg55
I0
sg56
I0
sg57
I466
sg58
I9
sg59
I0
sg60
I4
sg61
I25
sg62
I15
sg63
I0
sg64
I12
sg65
I0
sg66
I0
sg67
I2
sg68
I890
sg69
I0
sg70
I0
sg71
I0
sg72
I0
sg73
I894
sg74
I0
sg75
I0
sg76
I0
sg77
I0
sg78
I909
sg79
I1
sg80
I0
sg81
I20
sg82
I0
sg83
I1
sg84
I510
ssg85
(dp98
I0
I947
sI1
I0
sI2
I0
sI3
I0
sI4
I935
sI5
I89
sI6
I0
sI7
I0
sI8
I905
sI9
I893
sI10
I2083
sI11
I0
sI12
I14
sI13
I10
sI14
I11
sI15
I4
sssI8
(dp99
g3
(dp100
g5
I0
sg6
I0
sg7
I0
sg8
I0
sg9
I0
sg10
I0
sg11
I0
sg12
I0
sg13
I0
sg14
I0
sg15
I0
sg16
I0
sg17
I0
sg18
I0
sg19
I0
sg20
I0
sg21
I8
sg22
I0
sg23
I0
sg24
I6
sg25
I0
sg26
I0
sg27
I0
sg28
I0
sg29
I0
sg30
I0
sg31
I0
sg32
I19
sg33
I0
sg34
I0
sg35
I0
sg36
I0
sg37
I0
sg38
I0
sg39
I0
sg40
I0
sg41
I0
sg42
I0
sg43
I0
sg44
I0
sg45
I0
sg46
I0
sg47
I0
sg48
I0
sg49
I0
sg50
I0
sg51
I0
sg52
I0
sg53
I0
sg54
I0
sg55
I0
sg56
I0
sg57
I0
sg58
I0
sg59
I0
sg60
I0
sg61
I0
sg62
I0
sg63
I0
sg64
I0
sg65
I0
sg66
I0
sg67
I0
sg68
I0
sg69
I0
sg70
I0
sg71
I0
sg72
I0
sg73
I0
sg74
I0
sg75
I0
sg76
I0
sg77
I0
sg78
I1
sg79
I0
sg80
I0
sg81
I0
sg82
I0
sg83
I0
sg84
I0
ssg85
(dp101
I0
I1
sI1
I0
sI2
I0
sI3
I0
sI4
I1
sI5
I0
sI6
I0
sI7
I0
sI8
I0
sI9
I0
sI10
I0
sI11
I0
sI12
I0
sI13
I0
sI14
I0
sI15
I0
sssI64
(dp102
g3
(dp103
g5
I0
sg6
I0
sg7
I0
sg8
I0
sg9
I0
sg10
I0
sg11
I0
sg12
I0
sg13
I0
sg14
I0
sg15
I0
sg16
I0
sg17
I0
sg18
I0
sg19
I0
sg20
I0
sg21
I64
sg22
I0
sg23
I0
sg24
I61
sg25
I0
sg26
I0
sg27
I1
sg28
I0
sg29
I0
sg30
I0
sg31
I0
sg32
I64
sg33
I0
sg34
I0
sg35
I0
sg36
I0
sg37
I0
sg38
I0
sg39
I0
sg40
I0
sg41
I0
sg42
I0
sg43
I0
sg44
I0
sg45
I0
sg46
I0
sg47
I0
sg48
I0
sg49
I0
sg50
I0
sg51
I0
sg52
I0
sg53
I0
sg54
I0
sg55
I0
sg56
I0
sg57
I0
sg58
I0
sg59
I0
sg60
I0
sg61
I0
sg62
I0
sg63
I0
sg64
I0
sg65
I0
sg66
I0
sg67
I0
sg68
I0
sg69
I0
sg70
I0
sg71
I0
sg72
I0
sg73
I1
sg74
I0
sg75
I0
sg76
I0
sg77
I0
sg78
I2
sg79
I0
sg80
I0
sg81
I0
sg82
I0
sg83
I0
sg84
I0
ssg85
(dp104
I0
I2
sI1
I0
sI2
I0
sI3
I0
sI4
I2
sI5
I0
sI6
I0
sI7
I0
sI8
I0
sI9
I1
sI10
I0
sI11
I0
sI12
I0
sI13
I0
sI14
I0
sI15
I0
sssI128
(dp105
g3
(dp106
g5
I0
sg6
I0
sg7
I0
sg8
I0
sg9
I0
sg10
I0
sg11
I0
sg12
I2
sg13
I0
sg14
I0
sg15
I0
sg16
I0
sg17
I3
sg18
I0
sg19
I2
sg20
I0
sg21
I117
sg22
I10
sg23
I0
sg24
I72
sg25
I0
sg26
I9
sg27
I4
sg28
I0
sg29
I12
sg30
I0
sg31
I0
sg32
I86
sg33
I2
sg34
I0
sg35
I0
sg36
I3
sg37
I0
sg38
I2
sg39
I0
sg40
I0
sg41
I13
sg42
I0
sg43
I0
sg44
I3
sg45
I0
sg46
I0
sg47
I9
sg48
I8
sg49
I2
sg50
I0
sg51
I1
sg52
I0
sg53
I0
sg54
I0
sg55
I0
sg56
I0
sg57
I18
sg58
I9
sg59
I0
sg60
I3
sg61
I0
sg62
I15
sg63
I0
sg64
I11
sg65
I0
sg66
I0
sg67
I2
sg68
I23
sg69
I0
sg70
I0
sg71
I0
sg72
I0
sg73
I27
sg74
I0
sg75
I0
sg76
I0
sg77
I0
sg78
I41
sg79
I1
sg80
I0
sg81
I1
sg82
I0
sg83
I1
sg84
I13
ssg85
(dp107
I0
I53
sI1
I0
sI2
I0
sI3
I0
sI4
I40
sI5
I2
sI6
I0
sI7
I0
sI8
I37
sI9
I26
sI10
I56
sI11
I0
sI12
I13
sI13
I9
sI14
I10
sI15
I3
sssI256
(dp108
g3
(dp109
g5
I0
sg6
I0
sg7
I0
sg8
I0
sg9
I0
sg10
I0
sg11
I0
sg12
I2
sg13
I0
sg14
I0
sg15
I1
sg16
I0
sg17
I3
sg18
I0
sg19
I26
sg20
I23
sg21
I244
sg22
I72
sg23
I0
sg24
I72
sg25
I0
sg26
I10
sg27
I4
sg28
I0
sg29
I12
sg30
I0
sg31
I0
sg32
I86
sg33
I2
sg34
I0
sg35
I0
sg36
I3
sg37
I0
sg38
I17
sg39
I0
sg40
I0
sg41
I62
sg42
I0
sg43
I0
sg44
I3
sg45
I0
sg46
I2
sg47
I10
sg48
I9
sg49
I13
sg50
I0
sg51
I1
sg52
I0
sg53
I0
sg54
I0
sg55
I0
sg56
I0
sg57
I74
sg58
I9
sg59
I0
sg60
I4
sg61
I21
sg62
I15
sg63
I0
sg64
I12
sg65
I0
sg66
I0
sg67
I2
sg68
I125
sg69
I0
sg70
I0
sg71
I0
sg72
I0
sg73
I129
sg74
I0
sg75
I0
sg76
I0
sg77
I0
sg78
I144
sg79
I1
sg80
I0
sg81
I19
sg82
I0
sg83
I1
sg84
I81
ssg85
(dp110
I0
I179
sI1
I0
sI2
I0
sI3
I0
sI4
I167
sI5
I81
sI6
I0
sI7
I0
sI8
I140
sI9
I128
sI10
I302
sI11
I0
sI12
I14
sI13
I10
sI14
I11
sI15
I4
sssI16
(dp111
g3
(dp112
g5
I0
sg6
I0
sg7
I0
sg8
I0
sg9
I0
sg10
I0
sg11
I0
sg12
I0
sg13
I0
sg14
I0
sg15
I0
sg16
I0
sg17
I0
sg18
I0
sg19
I0
sg20
I0
sg21
I16
sg22
I0
sg23
I0
sg24
I14
sg25
I0
sg26
I0
sg27
I0
sg28
I0
sg29
I0
sg30
I0
sg31
I0
sg32
I26
sg33
I0
sg34
I0
sg35
I0
sg36
I0
sg37
I0
sg38
I0
sg39
I0
sg40
I0
sg41
I0
sg42
I0
sg43
I0
sg44
I0
sg45
I0
sg46
I0
sg47
I0
sg48
I0
sg49
I0
sg50
I0
sg51
I0
sg52
I0
sg53
I0
sg54
I0
sg55
I0
sg56
I0
sg57
I0
sg58
I0
sg59
I0
sg60
I0
sg61
I0
sg62
I0
sg63
I0
sg64
I0
sg65
I0
sg66
I0
sg67
I0
sg68
I0
sg69
I0
sg70
I0
sg71
I0
sg72
I0
sg73
I0
sg74
I0
sg75
I0
sg76
I0
sg77
I0
sg78
I1
sg79
I0
sg80
I0
sg81
I0
sg82
I0
sg83
I0
sg84
I0
ssg85
(dp113
I0
I2
sI1
I0
sI2
I0
sI3
I0
sI4
I1
sI5
I0
sI6
I0
sI7
I0
sI8
I0
sI9
I0
sI10
I0
sI11
I0
sI12
I0
sI13
I0
sI14
I0
sI15
I0
sssI512
(dp114
g3
(dp115
g5
I0
sg6
I0
sg7
I0
sg8
I0
sg9
I0
sg10
I0
sg11
I0
sg12
I2
sg13
I0
sg14
I0
sg15
I1
sg16
I0
sg17
I3
sg18
I0
sg19
I28
sg20
I24
sg21
I500
sg22
I222
sg23
I0
sg24
I72
sg25
I0
sg26
I10
sg27
I4
sg28
I0
sg29
I12
sg30
I0
sg31
I0
sg32
I86
sg33
I2
sg34
I0
sg35
I0
sg36
I3
sg37
I0
sg38
I18
sg39
I0
sg40
I0
sg41
I197
sg42
I0
sg43
I0
sg44
I3
sg45
I0
sg46
I2
sg47
I10
sg48
I9
sg49
I37
sg50
I0
sg51
I1
sg52
I0
sg53
I0
sg54
I0
sg55
I0
sg56
I0
sg57
I209
sg58
I9
sg59
I0
sg60
I4
sg61
I25
sg62
I15
sg63
I0
sg64
I12
sg65
I0
sg66
I0
sg67
I2
sg68
I379
sg69
I0
sg70
I0
sg71
I0
sg72
I0
sg73
I383
sg74
I0
sg75
I0
sg76
I0
sg77
I0
sg78
I398
sg79
I1
sg80
I0
sg81
I19
sg82
I0
sg83
I1
sg84
I229
ssg85
(dp116
I0
I435
sI1
I0
sI2
I0
sI3
I0
sI4
I423
sI5
I87
sI6
I0
sI7
I0
sI8
I394
sI9
I382
sI10
I894
sI11
I0
sI12
I14
sI13
I10
sI14
I11
sI15
I4
sss.