(dp1
I32
(dp2
S'visit_count'
p3
(dp4
(I0
I1
tp5
I43
s(I0
I0
tp6
I29
s(I3
I0
tp7
I5
s(I3
I1
tp8
I4
s(I2
I1
tp9
I13
s(I2
I0
tp10
I15
s(I1
I0
tp11
I18
s(I4
I1
tp12
I1
s(I1
I1
tp13
I29
s(I4
I0
tp14
I3
ssS'query_count'
p15
(dp16
(I0
I1
tp17
I3
s(I0
I0
tp18
I0
s(I3
I0
tp19
I1
s(I3
I1
tp20
I0
s(I2
I1
tp21
I2
s(I2
I0
tp22
I2
s(I1
I0
tp23
I2
s(I4
I1
tp24
I1
s(I1
I1
tp25
I0
s(I4
I0
tp26
I0
sssI1
(dp27
g3
(dp28
g5
I1
sg6
I0
sg7
I1
sg8
I0
sg9
I2
sg10
I0
sg11
I0
sg12
I0
sg13
I1
sg14
I0
ssg15
(dp29
g17
I1
sg18
I0
sg19
I0
sg20
I0
sg21
I2
sg22
I0
sg23
I0
sg24
I0
sg25
I0
sg26
I0
sssI2
(dp30
g3
(dp31
g5
I2
sg6
I0
sg7
I1
sg8
I1
sg9
I3
sg10
I0
sg11
I0
sg12
I0
sg13
I2
sg14
I1
ssg15
(dp32
g17
I2
sg18
I0
sg19
I0
sg20
I0
sg21
I2
sg22
I0
sg23
I0
sg24
I0
sg25
I0
sg26
I0
sssI4
(dp33
g3
(dp34
g5
I5
sg6
I1
sg7
I1
sg8
I2
sg9
I4
sg10
I0
sg11
I2
sg12
I1
sg13
I3
sg14
I1
ssg15
(dp35
g17
I2
sg18
I0
sg19
I0
sg20
I0
sg21
I2
sg22
I0
sg23
I2
sg24
I1
sg25
I0
sg26
I0
sssI8
(dp36
g3
(dp37
g5
I10
sg6
I3
sg7
I1
sg8
I2
sg9
I4
sg10
I5
sg11
I4
sg12
I1
sg13
I9
sg14
I1
ssg15
(dp38
g17
I3
sg18
I0
sg19
I0
sg20
I0
sg21
I2
sg22
I2
sg23
I2
sg24
I1
sg25
I0
sg26
I0
sssI64
(dp39
g3
(dp40
g5
I90
sg6
I60
sg7
I11
sg8
I7
sg9
I28
sg10
I23
sg11
I39
sg12
I1
sg13
I56
sg14
I5
ssg15
(dp41
g17
I3
sg18
I0
sg19
I1
sg20
I0
sg21
I2
sg22
I2
sg23
I2
sg24
I1
sg25
I0
sg26
I0
sssI128
(dp42
g3
(dp43
g5
I172
sg6
I161
sg7
I16
sg8
I13
sg9
I47
sg10
I43
sg11
I79
sg12
I1
sg13
I98
sg14
I10
ssg15
(dp44
g17
I3
sg18
I0
sg19
I1
sg20
I0
sg21
I2
sg22
I2
sg23
I2
sg24
I1
sg25
I0
sg26
I0
sssI16
(dp45
g3
(dp46
g5
I20
sg6
I15
sg7
I2
sg8
I3
sg9
I7
sg10
I7
sg11
I9
sg12
I1
sg13
I14
sg14
I2
ssg15
(dp47
g17
I3
sg18
I0
sg19
I1
sg20
I0
sg21
I2
sg22
I2
sg23
I2
sg24
I1
sg25
I0
sg26
I0
sss.