(dp1
I32
(dp2
S'visit_count'
p3
(dp4
(I7
I3
tp5
I0
s(I1
I3
tp6
I14
s(I12
I1
tp7
I0
s(I9
I1
tp8
I0
s(I3
I0
tp9
I1
s(I14
I4
tp10
I0
s(I11
I2
tp11
I0
s(I8
I0
tp12
I3
s(I3
I2
tp13
I0
s(I2
I1
tp14
I0
s(I15
I1
tp15
I0
s(I6
I2
tp16
I1
s(I14
I0
tp17
I0
s(I9
I4
tp18
I0
s(I4
I2
tp19
I1
s(I5
I1
tp20
I0
s(I0
I3
tp21
I5
s(I10
I3
tp22
I0
s(I7
I2
tp23
I0
s(I4
I0
tp24
I1
s(I1
I2
tp25
I3
s(I12
I2
tp26
I0
s(I9
I0
tp27
I0
s(I3
I3
tp28
I0
s(I0
I2
tp29
I27
s(I13
I3
tp30
I0
s(I8
I1
tp31
I0
s(I4
I4
tp32
I0
s(I15
I0
tp33
I0
s(I6
I3
tp34
I0
s(I11
I4
tp35
I0
s(I14
I1
tp36
I0
s(I11
I1
tp37
I0
s(I5
I0
tp38
I14
s(I2
I2
tp39
I1
s(I15
I4
tp40
I0
s(I10
I0
tp41
I0
s(I4
I1
tp42
I0
s(I13
I4
tp43
I0
s(I12
I3
tp44
I0
s(I6
I4
tp45
I0
s(I5
I4
tp46
I0
s(I0
I0
tp47
I0
s(I13
I2
tp48
I0
s(I10
I4
tp49
I0
s(I7
I1
tp50
I0
s(I15
I3
tp51
I0
s(I9
I3
tp52
I1
s(I6
I0
tp53
I0
s(I1
I4
tp54
I0
s(I11
I0
tp55
I0
s(I2
I3
tp56
I1
s(I10
I1
tp57
I0
s(I0
I4
tp58
I0
s(I1
I0
tp59
I10
s(I14
I2
tp60
I0
s(I5
I3
tp61
I1
s(I0
I1
tp62
I0
s(I13
I1
tp63
I0
s(I8
I3
tp64
I0
s(I7
I0
tp65
I1
s(I15
I2
tp66
I0
s(I12
I0
tp67
I0
s(I9
I2
tp68
I0
s(I3
I4
tp69
I0
s(I6
I1
tp70
I0
s(I3
I1
tp71
I0
s(I11
I3
tp72
I0
s(I8
I2
tp73
I0
s(I1
I1
tp74
I12
s(I7
I4
tp75
I0
s(I2
I0
tp76
I1
s(I12
I4
tp77
I0
s(I4
I3
tp78
I3
s(I14
I3
tp79
I0
s(I8
I4
tp80
I0
s(I5
I2
tp81
I0
s(I2
I4
tp82
I0
s(I13
I0
tp83
I1
s(I10
I2
tp84
I0
ssS'query_count'
p85
(dp86
I0
I1
sI1
I6
sI2
I1
sI3
I1
sI4
I2
sI5
I7
sI6
I0
sI7
I1
sI8
I2
sI9
I0
sI10
I0
sI11
I0
sI12
I0
sI13
I1
sI14
I0
sI15
I0
sssI1
(dp87
g3
(dp88
g5
I0
sg6
I0
sg7
I0
sg8
I0
sg9
I0
sg10
I0
sg11
I0
sg12
I1
sg13
I0
sg14
I0
sg15
I0
sg16
I0
sg17
I0
sg18
I0
sg19
I0
sg20
I0
sg21
I1
sg22
I0
sg23
I0
sg24
I0
sg25
I0
sg26
I0
sg27
I0
sg28
I0
sg29
I0
sg30
I0
sg31
I0
sg32
I0
sg33
I0
sg34
I0
sg35
I0
sg36
I0
sg37
I0
sg38
I0
sg39
I0
sg40
I0
sg41
I0
sg42
I0
sg43
I0
sg44
I0
sg45
I0
sg46
I0
sg47
I0
sg48
I0
sg49
I0
sg50
I0
sg51
I0
sg52
I0
sg53
I0
sg54
I0
sg55
I0
sg56
I0
sg57
I0
sg58
I0
sg59
I0
sg60
I0
sg61
I0
sg62
I0
sg63
I0
sg64
I0
sg65
I0
sg66
I0
sg67
I0
sg68
I0
sg69
I0
sg70
I0
sg71
I0
sg72
I0
sg73
I0
sg74
I0
sg75
I0
sg76
I0
sg77
I0
sg78
I1
sg79
I0
sg80
I0
sg81
I0
sg82
I0
sg83
I0
sg84
I0
ssg85
(dp89
I0
I0
sI1
I0
sI2
I0
sI3
I0
sI4
I0
sI5
I0
sI6
I0
sI7
I0
sI8
I1
sI9
I0
sI10
I0
sI11
I0
sI12
I0
sI13
I0
sI14
I0
sI15
I0
sssI2
(dp90
g3
(dp91
g5
I0
sg6
I0
sg7
I0
sg8
I0
sg9
I0
sg10
I0
sg11
I0
sg12
I2
sg13
I0
sg14
I0
sg15
I0
sg16
I0
sg17
I0
sg18
I0
sg19
I0
sg20
I0
sg21
I2
sg22
I0
sg23
I0
sg24
I0
sg25
I0
sg26
I0
sg27
I0
sg28
I0
sg29
I0
sg30
I0
sg31
I0
sg32
I0
sg33
I0
sg34
I0
sg35
I0
sg36
I0
sg37
I0
sg38
I0
sg39
I0
sg40
I0
sg41
I0
sg42
I0
sg43
I0
sg44
I0
sg45
I0
sg46
I0
sg47
I0
sg48
I0
sg49
I0
sg50
I0
sg51
I0
sg52
I0
sg53
I0
sg54
I0
sg55
I0
sg56
I0
sg57
I0
sg58
I0
sg59
I0
sg60
I0
sg61
I0
sg62
I0
sg63
I0
sg64
I0
sg65
I0
sg66
I0
sg67
I0
sg68
I0
sg69
I0
sg70
I0
sg71
I0
sg72
I0
sg73
I0
sg74
I0
sg75
I0
sg76
I0
sg77
I0
sg78
I2
sg79
I0
sg80
I0
sg81
I0
sg82
I0
sg83
I0
sg84
I0
ssg85
(dp92
I0
I0
sI1
I0
sI2
I0
sI3
I0
sI4
I0
sI5
I0
sI6
I0
sI7
I0
sI8
I1
sI9
I0
sI10
I0
sI11
I0
sI12
I0
sI13
I0
sI14
I0
sI15
I0
sssI4
(dp93
g3
(dp94
g5
I0
sg6
I0
sg7
I0
sg8
I0
sg9
I1
sg10
I0
sg11
I0
sg12
I3
sg13
I0
sg14
I0
sg15
I0
sg16
I0
sg17
I0
sg18
I0
sg19
I0
sg20
I0
sg21
I3
sg22
I0
sg23
I0
sg24
I0
sg25
I1
sg26
I0
sg27
I0
sg28
I0
sg29
I1
sg30
I0
sg31
I0
sg32
I0
sg33
I0
sg34
I0
sg35
I0
sg36
I0
sg37
I0
sg38
I0
sg39
I1
sg40
I0
sg41
I0
sg42
I0
sg43
I0
sg44
I0
sg45
I0
sg46
I0
sg47
I0
sg48
I0
sg49
I0
sg50
I0
sg51
I0
sg52
I0
sg53
I0
sg54
I0
sg55
I0
sg56
I0
sg57
I0
sg58
I0
sg59
I0
sg60
I0
sg61
I0
sg62
I0
sg63
I0
sg64
I0
sg65
I0
sg66
I0
sg67
I0
sg68
I0
sg69
I0
sg70
I0
sg71
I0
sg72
I0
sg73
I0
sg74
I0
sg75
I0
sg76
I0
sg77
I0
sg78
I3
sg79
I0
sg80
I0
sg81
I0
sg82
I0
sg83
I0
sg84
I0
ssg85
(dp95
I0
I0
sI1
I1
sI2
I0
sI3
I1
sI4
I0
sI5
I0
sI6
I0
sI7
I0
sI8
I2
sI9
I0
sI10
I0
sI11
I0
sI12
I0
sI13
I0
sI14
I0
sI15
I0
sssI1024
(dp96
g3
(dp97
g5
I0
sg6
I996
sg7
I0
sg8
I0
sg9
I1
sg10
I0
sg11
I0
sg12
I3
sg13
I0
sg14
I0
sg15
I0
sg16
I2
sg17
I3
sg18
I0
sg19
I8
sg20
I0
sg21
I13
sg22
I3
sg23
I2
sg24
I1
sg25
I4
sg26
I0
sg27
I1
sg28
I0
sg29
I1010
sg30
I1
sg31
I0
sg32
I0
sg33
I1
sg34
I453
sg35
I0
sg36
I0
sg37
I0
sg38
I362
sg39
I1
sg40
I0
sg41
I628
sg42
I0
sg43
I0
sg44
I1
sg45
I0
sg46
I0
sg47
I1
sg48
I1
sg49
I0
sg50
I1
sg51
I0
sg52
I3
sg53
I4
sg54
I0
sg55
I2
sg56
I1
sg57
I0
sg58
I3
sg59
I10
sg60
I1
sg61
I184
sg62
I1
sg63
I0
sg64
I1
sg65
I1
sg66
I0
sg67
I1
sg68
I180
sg69
I0
sg70
I0
sg71
I0
sg72
I0
sg73
I0
sg74
I12
sg75
I0
sg76
I2
sg77
I0
sg78
I4
sg79
I0
sg80
I0
sg81
I458
sg82
I0
sg83
I2
sg84
I2
ssg85
(dp98
I0
I13
sI1
I39
sI2
I2
sI3
I1
sI4
I8
sI5
I116
sI6
I69
sI7
I4
sI8
I2
sI9
I52
sI10
I74
sI11
I2
sI12
I2
sI13
I4
sI14
I3
sI15
I1
sssI8
(dp99
g3
(dp100
g5
I0
sg6
I0
sg7
I0
sg8
I0
sg9
I1
sg10
I0
sg11
I0
sg12
I3
sg13
I0
sg14
I0
sg15
I0
sg16
I0
sg17
I0
sg18
I0
sg19
I0
sg20
I0
sg21
I4
sg22
I0
sg23
I0
sg24
I1
sg25
I1
sg26
I0
sg27
I0
sg28
I0
sg29
I4
sg30
I0
sg31
I0
sg32
I0
sg33
I0
sg34
I0
sg35
I0
sg36
I0
sg37
I0
sg38
I0
sg39
I1
sg40
I0
sg41
I0
sg42
I0
sg43
I0
sg44
I0
sg45
I0
sg46
I0
sg47
I0
sg48
I0
sg49
I0
sg50
I0
sg51
I0
sg52
I0
sg53
I0
sg54
I0
sg55
I0
sg56
I0
sg57
I0
sg58
I0
sg59
I3
sg60
I0
sg61
I0
sg62
I0
sg63
I0
sg64
I0
sg65
I0
sg66
I0
sg67
I0
sg68
I0
sg69
I0
sg70
I0
sg71
I0
sg72
I0
sg73
I0
sg74
I3
sg75
I0
sg76
I0
sg77
I0
sg78
I3
sg79
I0
sg80
I0
sg81
I0
sg82
I0
sg83
I0
sg84
I0
ssg85
(dp101
I0
I1
sI1
I2
sI2
I0
sI3
I1
sI4
I1
sI5
I0
sI6
I0
sI7
I0
sI8
I2
sI9
I0
sI10
I0
sI11
I0
sI12
I0
sI13
I0
sI14
I0
sI15
I0
sssI64
(dp102
g3
(dp103
g5
I0
sg6
I43
sg7
I0
sg8
I0
sg9
I1
sg10
I0
sg11
I0
sg12
I3
sg13
I0
sg14
I0
sg15
I0
sg16
I1
sg17
I0
sg18
I0
sg19
I4
sg20
I0
sg21
I8
sg22
I0
sg23
I0
sg24
I1
sg25
I3
sg26
I0
sg27
I1
sg28
I0
sg29
I56
sg30
I0
sg31
I0
sg32
I0
sg33
I0
sg34
I0
sg35
I0
sg36
I0
sg37
I0
sg38
I45
sg39
I1
sg40
I0
sg41
I0
sg42
I0
sg43
I0
sg44
I0
sg45
I0
sg46
I0
sg47
I0
sg48
I0
sg49
I0
sg50
I0
sg51
I0
sg52
I1
sg53
I0
sg54
I0
sg55
I0
sg56
I1
sg57
I0
sg58
I0
sg59
I10
sg60
I0
sg61
I2
sg62
I0
sg63
I0
sg64
I0
sg65
I1
sg66
I0
sg67
I0
sg68
I0
sg69
I0
sg70
I0
sg71
I0
sg72
I0
sg73
I0
sg74
I12
sg75
I0
sg76
I1
sg77
I0
sg78
I3
sg79
I0
sg80
I0
sg81
I0
sg82
I0
sg83
I1
sg84
I0
ssg85
(dp104
I0
I1
sI1
I9
sI2
I1
sI3
I1
sI4
I5
sI5
I14
sI6
I0
sI7
I1
sI8
I2
sI9
I1
sI10
I0
sI11
I0
sI12
I0
sI13
I1
sI14
I0
sI15
I0
sssI128
(dp105
g3
(dp106
g5
I0
sg6
I104
sg7
I0
sg8
I0
sg9
I1
sg10
I0
sg11
I0
sg12
I3
sg13
I0
sg14
I0
sg15
I0
sg16
I1
sg17
I0
sg18
I0
sg19
I7
sg20
I0
sg21
I11
sg22
I0
sg23
I0
sg24
I1
sg25
I3
sg26
I0
sg27
I1
sg28
I0
sg29
I117
sg30
I0
sg31
I0
sg32
I0
sg33
I0
sg34
I0
sg35
I0
sg36
I0
sg37
I0
sg38
I109
sg39
I1
sg40
I0
sg41
I0
sg42
I0
sg43
I0
sg44
I0
sg45
I0
sg46
I0
sg47
I0
sg48
I0
sg49
I0
sg50
I0
sg51
I0
sg52
I1
sg53
I0
sg54
I0
sg55
I0
sg56
I1
sg57
I0
sg58
I0
sg59
I10
sg60
I0
sg61
I2
sg62
I0
sg63
I0
sg64
I0
sg65
I1
sg66
I0
sg67
I0
sg68
I0
sg69
I0
sg70
I0
sg71
I0
sg72
I0
sg73
I0
sg74
I12
sg75
I0
sg76
I1
sg77
I0
sg78
I3
sg79
I0
sg80
I0
sg81
I0
sg82
I0
sg83
I1
sg84
I0
ssg85
(dp107
I0
I1
sI1
I15
sI2
I1
sI3
I1
sI4
I7
sI5
I23
sI6
I0
sI7
I1
sI8
I2
sI9
I1
sI10
I0
sI11
I0
sI12
I0
sI13
I1
sI14
I0
sI15
I0
sssI256
(dp108
g3
(dp109
g5
I0
sg6
I230
sg7
I0
sg8
I0
sg9
I1
sg10
I0
sg11
I0
sg12
I3
sg13
I0
sg14
I0
sg15
I0
sg16
I1
sg17
I2
sg18
I0
sg19
I8
sg20
I0
sg21
I12
sg22
I1
sg23
I0
sg24
I1
sg25
I4
sg26
I0
sg27
I1
sg28
I0
sg29
I244
sg30
I1
sg31
I0
sg32
I0
sg33
I0
sg34
I2
sg35
I0
sg36
I0
sg37
I0
sg38
I228
sg39
I1
sg40
I0
sg41
I1
sg42
I0
sg43
I0
sg44
I0
sg45
I0
sg46
I0
sg47
I0
sg48
I1
sg49
I0
sg50
I0
sg51
I0
sg52
I3
sg53
I4
sg54
I0
sg55
I0
sg56
I1
sg57
I0
sg58
I0
sg59
I10
sg60
I0
sg61
I4
sg62
I0
sg63
I0
sg64
I0
sg65
I1
sg66
I0
sg67
I0
sg68
I0
sg69
I0
sg70
I0
sg71
I0
sg72
I0
sg73
I0
sg74
I12
sg75
I0
sg76
I2
sg77
I0
sg78
I3
sg79
I0
sg80
I0
sg81
I6
sg82
I0
sg83
I2
sg84
I0
ssg85
(dp110
I0
I2
sI1
I22
sI2
I2
sI3
I1
sI4
I8
sI5
I38
sI6
I4
sI7
I1
sI8
I2
sI9
I3
sI10
I1
sI11
I0
sI12
I0
sI13
I4
sI14
I2
sI15
I0
sssI16
(dp111
g3
(dp112
g5
I0
sg6
I0
sg7
I0
sg8
I0
sg9
I1
sg10
I0
sg11
I0
sg12
I3
sg13
I0
sg14
I0
sg15
I0
sg16
I1
sg17
I0
sg18
I0
sg19
I0
sg20
I0
sg21
I4
sg22
I0
sg23
I0
sg24
I1
sg25
I3
sg26
I0
sg27
I0
sg28
I0
sg29
I12
sg30
I0
sg31
I0
sg32
I0
sg33
I0
sg34
I0
sg35
I0
sg36
I0
sg37
I0
sg38
I0
sg39
I1
sg40
I0
sg41
I0
sg42
I0
sg43
I0
sg44
I0
sg45
I0
sg46
I0
sg47
I0
sg48
I0
sg49
I0
sg50
I0
sg51
I0
sg52
I0
sg53
I0
sg54
I0
sg55
I0
sg56
I1
sg57
I0
sg58
I0
sg59
I9
sg60
I0
sg61
I0
sg62
I0
sg63
I0
sg64
I0
sg65
I1
sg66
I0
sg67
I0
sg68
I0
sg69
I0
sg70
I0
sg71
I0
sg72
I0
sg73
I0
sg74
I12
sg75
I0
sg76
I1
sg77
I0
sg78
I3
sg79
I0
sg80
I0
sg81
I0
sg82
I0
sg83
I0
sg84
I0
ssg85
(dp113
I0
I1
sI1
I5
sI2
I1
sI3
I1
sI4
I1
sI5
I0
sI6
I0
sI7
I1
sI8
I2
sI9
I0
sI10
I0
sI11
I0
sI12
I0
sI13
I0
sI14
I0
sI15
I0
sssI512
(dp114
g3
(dp115
g5
I0
sg6
I484
sg7
I0
sg8
I0
sg9
I1
sg10
I0
sg11
I0
sg12
I3
sg13
I0
sg14
I0
sg15
I0
sg16
I2
sg17
I2
sg18
I0
sg19
I8
sg20
I0
sg21
I13
sg22
I1
sg23
I2
sg24
I1
sg25
I4
sg26
I0
sg27
I1
sg28
I0
sg29
I498
sg30
I1
sg31
I0
sg32
I0
sg33
I0
sg34
I166
sg35
I0
sg36
I0
sg37
I0
sg38
I308
sg39
I1
sg40
I0
sg41
I173
sg42
I0
sg43
I0
sg44
I1
sg45
I0
sg46
I0
sg47
I1
sg48
I1
sg49
I0
sg50
I1
sg51
I0
sg52
I3
sg53
I4
sg54
I0
sg55
I1
sg56
I1
sg57
I0
sg58
I3
sg59
I10
sg60
I0
sg61
I13
sg62
I1
sg63
I0
sg64
I1
sg65
I1
sg66
I0
sg67
I1
sg68
I9
sg69
I0
sg70
I0
sg71
I0
sg72
I0
sg73
I0
sg74
I12
sg75
I0
sg76
I2
sg77
I0
sg78
I4
sg79
I0
sg80
I0
sg81
I171
sg82
I0
sg83
I2
sg84
I1
ssg85
(dp116
I0
I11
sI1
I32
sI2
I2
sI3
I1
sI4
I8
sI5
I79
sI6
I22
sI7
I4
sI8
I2
sI9
I9
sI10
I37
sI11
I1
sI12
I2
sI13
I4
sI14
I2
sI15
I0
sss.