(dp1
I32
(dp2
S'visit_count'
p3
(dp4
(I0
I1
tp5
I17159
s(I0
I0
tp6
I17661
s(I3
I0
tp7
I1198
s(I3
I1
tp8
I1387
s(I2
I1
tp9
I4109
s(I2
I0
tp10
I3840
s(I1
I0
tp11
I8376
s(I4
I1
tp12
I542
s(I1
I1
tp13
I8787
s(I4
I0
tp14
I461
ssS'query_count'
p15
(dp16
(I0
I1
tp17
I5
s(I0
I0
tp18
I5
s(I3
I0
tp19
I14
s(I3
I1
tp20
I7
s(I2
I1
tp21
I6
s(I2
I0
tp22
I5
s(I1
I0
tp23
I2
s(I4
I1
tp24
I4
s(I1
I1
tp25
I3
s(I4
I0
tp26
I33
sssI1
(dp27
g3
(dp28
g5
I17114
sg6
I17621
sg7
I1197
sg8
I1383
sg9
I4099
sg10
I3833
sg11
I8353
sg12
I540
sg13
I8764
sg14
I461
ssg15
(dp29
g17
I5
sg18
I5
sg19
I14
sg20
I7
sg21
I6
sg22
I5
sg23
I2
sg24
I4
sg25
I3
sg26
I33
sssI2
(dp30
g3
(dp31
g5
I17116
sg6
I17621
sg7
I1197
sg8
I1383
sg9
I4100
sg10
I3833
sg11
I8354
sg12
I540
sg13
I8765
sg14
I461
ssg15
(dp32
g17
I5
sg18
I5
sg19
I14
sg20
I7
sg21
I6
sg22
I5
sg23
I2
sg24
I4
sg25
I3
sg26
I33
sssI4
(dp33
g3
(dp34
g5
I17119
sg6
I17625
sg7
I1197
sg8
I1383
sg9
I4100
sg10
I3833
sg11
I8357
sg12
I540
sg13
I8765
sg14
I461
ssg15
(dp35
g17
I5
sg18
I5
sg19
I14
sg20
I7
sg21
I6
sg22
I5
sg23
I2
sg24
I4
sg25
I3
sg26
I33
sssI8
(dp36
g3
(dp37
g5
I17124
sg6
I17628
sg7
I1197
sg8
I1384
sg9
I4101
sg10
I3836
sg11
I8358
sg12
I540
sg13
I8771
sg14
I461
ssg15
(dp38
g17
I5
sg18
I5
sg19
I14
sg20
I7
sg21
I6
sg22
I5
sg23
I2
sg24
I4
sg25
I3
sg26
I33
sssI64
(dp39
g3
(dp40
g5
I17201
sg6
I17707
sg7
I1200
sg8
I1394
sg9
I4122
sg10
I3845
sg11
I8395
sg12
I547
sg13
I8807
sg14
I462
ssg15
(dp41
g17
I5
sg18
I5
sg19
I14
sg20
I7
sg21
I6
sg22
I5
sg23
I2
sg24
I4
sg25
I3
sg26
I33
sssI128
(dp42
g3
(dp43
g5
I17286
sg6
I17797
sg7
I1207
sg8
I1399
sg9
I4139
sg10
I3869
sg11
I8440
sg12
I548
sg13
I8852
sg14
I463
ssg15
(dp44
g17
I5
sg18
I5
sg19
I14
sg20
I7
sg21
I6
sg22
I5
sg23
I2
sg24
I4
sg25
I3
sg26
I33
sssI16
(dp45
g3
(dp46
g5
I17138
sg6
I17640
sg7
I1197
sg8
I1384
sg9
I4101
sg10
I3837
sg11
I8367
sg12
I540
sg13
I8775
sg14
I461
ssg15
(dp47
g17
I5
sg18
I5
sg19
I14
sg20
I7
sg21
I6
sg22
I5
sg23
I2
sg24
I4
sg25
I3
sg26
I33
sss.