(dp1
I32
(dp2
S'visit_count'
p3
(dp4
(I0
I1
tp5
I44
s(I9
I0
tp6
I0
s(I0
I0
tp7
I109
s(I7
I0
tp8
I0
s(I9
I1
tp9
I4
s(I7
I1
tp10
I6
s(I8
I1
tp11
I4
s(I6
I1
tp12
I5
s(I3
I1
tp13
I15
s(I6
I0
tp14
I0
s(I2
I1
tp15
I19
s(I3
I0
tp16
I10
s(I5
I0
tp17
I5
s(I5
I1
tp18
I6
s(I8
I0
tp19
I1
s(I2
I0
tp20
I16
s(I1
I0
tp21
I26
s(I4
I1
tp22
I11
s(I1
I1
tp23
I33
s(I4
I0
tp24
I6
ssS'query_count'
p25
(dp26
(I0
I1
tp27
I1
s(I9
I0
tp28
I0
s(I0
I0
tp29
I50
s(I7
I0
tp30
I0
s(I9
I1
tp31
I1
s(I7
I1
tp32
I3
s(I8
I1
tp33
I0
s(I6
I1
tp34
I1
s(I3
I1
tp35
I8
s(I6
I0
tp36
I0
s(I2
I1
tp37
I4
s(I3
I0
tp38
I4
s(I5
I0
tp39
I3
s(I5
I1
tp40
I0
s(I8
I0
tp41
I0
s(I2
I0
tp42
I4
s(I1
I0
tp43
I10
s(I4
I1
tp44
I4
s(I1
I1
tp45
I10
s(I4
I0
tp46
I3
sssI1
(dp47
g3
(dp48
g5
I4
sg6
I0
sg7
I2
sg8
I0
sg9
I0
sg10
I0
sg11
I0
sg12
I0
sg13
I0
sg14
I0
sg15
I0
sg16
I0
sg17
I0
sg18
I0
sg19
I0
sg20
I0
sg21
I4
sg22
I0
sg23
I0
sg24
I0
ssg25
(dp49
g27
I0
sg28
I0
sg29
I0
sg30
I0
sg31
I0
sg32
I0
sg33
I0
sg34
I0
sg35
I0
sg36
I0
sg37
I0
sg38
I0
sg39
I0
sg40
I0
sg41
I0
sg42
I0
sg43
I0
sg44
I0
sg45
I0
sg46
I0
sssI2
(dp50
g3
(dp51
g5
I5
sg6
I0
sg7
I6
sg8
I0
sg9
I0
sg10
I0
sg11
I0
sg12
I0
sg13
I0
sg14
I0
sg15
I1
sg16
I1
sg17
I0
sg18
I0
sg19
I0
sg20
I1
sg21
I4
sg22
I0
sg23
I2
sg24
I0
ssg25
(dp52
g27
I0
sg28
I0
sg29
I0
sg30
I0
sg31
I0
sg32
I0
sg33
I0
sg34
I0
sg35
I0
sg36
I0
sg37
I0
sg38
I0
sg39
I0
sg40
I0
sg41
I0
sg42
I0
sg43
I0
sg44
I0
sg45
I0
sg46
I0
sssI4
(dp53
g3
(dp54
g5
I12
sg6
I0
sg7
I8
sg8
I0
sg9
I0
sg10
I0
sg11
I0
sg12
I0
sg13
I0
sg14
I0
sg15
I1
sg16
I1
sg17
I0
sg18
I0
sg19
I0
sg20
I3
sg21
I10
sg22
I0
sg23
I5
sg24
I0
ssg25
(dp55
g27
I0
sg28
I0
sg29
I0
sg30
I0
sg31
I0
sg32
I0
sg33
I0
sg34
I0
sg35
I0
sg36
I0
sg37
I0
sg38
I0
sg39
I0
sg40
I0
sg41
I0
sg42
I0
sg43
I5
sg44
I0
sg45
I0
sg46
I0
sssI1024
(dp56
g3
(dp57
g5
I1052
sg6
I1
sg7
I149
sg8
I3
sg9
I969
sg10
I975
sg11
I970
sg12
I975
sg13
I996
sg14
I6
sg15
I1006
sg16
I22
sg17
I13
sg18
I982
sg19
I3
sg20
I33
sg21
I50
sg22
I989
sg23
I1034
sg24
I12
ssg25
(dp58
g27
I67
sg28
I1
sg29
I90
sg30
I3
sg31
I65
sg32
I59
sg33
I68
sg34
I68
sg35
I65
sg36
I4
sg37
I70
sg38
I12
sg39
I10
sg40
I66
sg41
I1
sg42
I16
sg43
I25
sg44
I61
sg45
I76
sg46
I9
sssI8
(dp59
g3
(dp60
g5
I18
sg6
I0
sg7
I29
sg8
I0
sg9
I0
sg10
I0
sg11
I0
sg12
I0
sg13
I0
sg14
I0
sg15
I1
sg16
I1
sg17
I0
sg18
I0
sg19
I0
sg20
I7
sg21
I14
sg22
I0
sg23
I10
sg24
I0
ssg25
(dp61
g27
I0
sg28
I0
sg29
I10
sg30
I0
sg31
I0
sg32
I0
sg33
I0
sg34
I0
sg35
I0
sg36
I0
sg37
I0
sg38
I0
sg39
I0
sg40
I0
sg41
I0
sg42
I0
sg43
I5
sg44
I0
sg45
I0
sg46
I0
sssI64
(dp62
g3
(dp63
g5
I84
sg6
I1
sg7
I109
sg8
I2
sg9
I23
sg10
I28
sg11
I24
sg12
I28
sg13
I43
sg14
I4
sg15
I52
sg16
I18
sg17
I9
sg18
I33
sg19
I2
sg20
I25
sg21
I35
sg22
I38
sg23
I73
sg24
I9
ssg25
(dp64
g27
I14
sg28
I1
sg29
I50
sg30
I2
sg31
I4
sg32
I8
sg33
I4
sg34
I6
sg35
I11
sg36
I2
sg37
I11
sg38
I8
sg39
I6
sg40
I9
sg41
I0
sg42
I8
sg43
I10
sg44
I5
sg45
I23
sg46
I6
sssI128
(dp65
g3
(dp66
g5
I152
sg6
I1
sg7
I109
sg8
I2
sg9
I86
sg10
I91
sg11
I87
sg12
I91
sg13
I106
sg14
I4
sg15
I115
sg16
I18
sg17
I9
sg18
I96
sg19
I2
sg20
I25
sg21
I40
sg22
I101
sg23
I136
sg24
I9
ssg25
(dp67
g27
I23
sg28
I1
sg29
I50
sg30
I2
sg31
I12
sg32
I13
sg33
I10
sg34
I14
sg35
I14
sg36
I2
sg37
I16
sg38
I8
sg39
I6
sg40
I12
sg41
I0
sg42
I8
sg43
I15
sg44
I8
sg45
I24
sg46
I6
sssI256
(dp68
g3
(dp69
g5
I278
sg6
I1
sg7
I129
sg8
I2
sg9
I211
sg10
I216
sg11
I212
sg12
I216
sg13
I232
sg14
I4
sg15
I241
sg16
I18
sg17
I12
sg18
I221
sg19
I2
sg20
I25
sg21
I40
sg22
I229
sg23
I262
sg24
I9
ssg25
(dp70
g27
I30
sg28
I1
sg29
I70
sg30
I2
sg31
I23
sg32
I20
sg33
I18
sg34
I23
sg35
I25
sg36
I2
sg37
I20
sg38
I8
sg39
I9
sg40
I24
sg41
I0
sg42
I8
sg43
I15
sg44
I20
sg45
I31
sg46
I6
sssI16
(dp71
g3
(dp72
g5
I20
sg6
I0
sg7
I89
sg8
I0
sg9
I0
sg10
I0
sg11
I0
sg12
I0
sg13
I4
sg14
I0
sg15
I2
sg16
I1
sg17
I0
sg18
I0
sg19
I0
sg20
I11
sg21
I14
sg22
I0
sg23
I16
sg24
I3
ssg25
(dp73
g27
I0
sg28
I0
sg29
I40
sg30
I0
sg31
I0
sg32
I0
sg33
I0
sg34
I0
sg35
I4
sg36
I0
sg37
I0
sg38
I0
sg39
I0
sg40
I0
sg41
I0
sg42
I0
sg43
I5
sg44
I0
sg45
I5
sg46
I3
sssI512
(dp74
g3
(dp75
g5
I534
sg6
I1
sg7
I129
sg8
I2
sg9
I466
sg10
I471
sg11
I467
sg12
I471
sg13
I487
sg14
I4
sg15
I496
sg16
I18
sg17
I12
sg18
I476
sg19
I2
sg20
I29
sg21
I40
sg22
I484
sg23
I522
sg24
I9
ssg25
(dp76
g27
I49
sg28
I1
sg29
I70
sg30
I2
sg31
I42
sg32
I40
sg33
I40
sg34
I42
sg35
I37
sg36
I2
sg37
I42
sg38
I8
sg39
I9
sg40
I41
sg41
I0
sg42
I12
sg43
I15
sg44
I38
sg45
I54
sg46
I6
sss.