(dp1
I32
(dp2
S'visit_count'
p3
(dp4
(I0
I1
tp5
I15
s(I9
I0
tp6
I13
s(I0
I0
tp7
I17
s(I7
I0
tp8
I1
s(I9
I1
tp9
I18
s(I7
I1
tp10
I31
s(I8
I1
tp11
I1
s(I6
I1
tp12
I17
s(I3
I1
tp13
I19
s(I6
I0
tp14
I15
s(I2
I1
tp15
I8
s(I3
I0
tp16
I13
s(I5
I0
tp17
I16
s(I5
I1
tp18
I16
s(I8
I0
tp19
I0
s(I2
I0
tp20
I24
s(I1
I0
tp21
I19
s(I4
I1
tp22
I14
s(I1
I1
tp23
I13
s(I4
I0
tp24
I18
ssS'query_count'
p25
(dp26
I0
I0
sI1
I0
sI2
I0
sI3
I0
sI4
I0
sI5
I0
sI6
I0
sI7
I0
sI8
I1
sI9
I2
sssI1
(dp27
g3
(dp28
g5
I1
sg6
I0
sg7
I0
sg8
I1
sg9
I0
sg10
I0
sg11
I1
sg12
I0
sg13
I1
sg14
I1
sg15
I0
sg16
I0
sg17
I0
sg18
I1
sg19
I0
sg20
I1
sg21
I0
sg22
I0
sg23
I1
sg24
I1
ssg25
(dp29
I0
I0
sI1
I0
sI2
I0
sI3
I0
sI4
I0
sI5
I0
sI6
I0
sI7
I0
sI8
I1
sI9
I0
sssI2
(dp30
g3
(dp31
g5
I1
sg6
I1
sg7
I1
sg8
I1
sg9
I0
sg10
I1
sg11
I1
sg12
I0
sg13
I2
sg14
I2
sg15
I1
sg16
I0
sg17
I1
sg18
I1
sg19
I0
sg20
I1
sg21
I1
sg22
I0
sg23
I1
sg24
I2
ssg25
(dp32
I0
I0
sI1
I0
sI2
I0
sI3
I0
sI4
I0
sI5
I0
sI6
I0
sI7
I0
sI8
I1
sI9
I1
sssI4
(dp33
g3
(dp34
g5
I1
sg6
I2
sg7
I3
sg8
I1
sg9
I1
sg10
I3
sg11
I1
sg12
I1
sg13
I3
sg14
I3
sg15
I2
sg16
I1
sg17
I2
sg18
I2
sg19
I0
sg20
I2
sg21
I2
sg22
I2
sg23
I2
sg24
I2
ssg25
(dp35
I0
I0
sI1
I0
sI2
I0
sI3
I0
sI4
I0
sI5
I0
sI6
I0
sI7
I0
sI8
I1
sI9
I1
sssI1024
(dp36
g3
(dp37
g5
I495
sg6
I499
sg7
I529
sg8
I1
sg9
I524
sg10
I1023
sg11
I1
sg12
I501
sg13
I511
sg14
I523
sg15
I511
sg16
I513
sg17
I535
sg18
I489
sg19
I0
sg20
I513
sg21
I495
sg22
I511
sg23
I529
sg24
I513
ssg25
(dp38
I0
I0
sI1
I0
sI2
I0
sI3
I0
sI4
I0
sI5
I0
sI6
I0
sI7
I0
sI8
I1
sI9
I4
sssI8
(dp39
g3
(dp40
g5
I4
sg6
I3
sg7
I4
sg8
I1
sg9
I4
sg10
I7
sg11
I1
sg12
I3
sg13
I3
sg14
I5
sg15
I4
sg16
I5
sg17
I4
sg18
I4
sg19
I0
sg20
I4
sg21
I4
sg22
I3
sg23
I4
sg24
I5
ssg25
(dp41
I0
I0
sI1
I0
sI2
I0
sI3
I0
sI4
I0
sI5
I0
sI6
I0
sI7
I0
sI8
I1
sI9
I1
sssI64
(dp42
g3
(dp43
g5
I34
sg6
I27
sg7
I30
sg8
I1
sg9
I36
sg10
I63
sg11
I1
sg12
I37
sg13
I35
sg14
I27
sg15
I21
sg16
I29
sg17
I31
sg18
I33
sg19
I0
sg20
I43
sg21
I30
sg22
I33
sg23
I34
sg24
I31
ssg25
(dp44
I0
I0
sI1
I0
sI2
I0
sI3
I0
sI4
I0
sI5
I0
sI6
I0
sI7
I0
sI8
I1
sI9
I3
sssI128
(dp45
g3
(dp46
g5
I65
sg6
I51
sg7
I63
sg8
I1
sg9
I76
sg10
I127
sg11
I1
sg12
I74
sg13
I67
sg14
I54
sg15
I52
sg16
I61
sg17
I62
sg18
I66
sg19
I0
sg20
I76
sg21
I67
sg22
I62
sg23
I61
sg24
I66
ssg25
(dp47
I0
I0
sI1
I0
sI2
I0
sI3
I0
sI4
I0
sI5
I0
sI6
I0
sI7
I0
sI8
I1
sI9
I3
sssI256
(dp48
g3
(dp49
g5
I123
sg6
I120
sg7
I133
sg8
I1
sg9
I135
sg10
I255
sg11
I1
sg12
I144
sg13
I119
sg14
I112
sg15
I121
sg16
I137
sg17
I134
sg18
I122
sg19
I0
sg20
I135
sg21
I130
sg22
I112
sg23
I126
sg24
I144
ssg25
(dp50
I0
I0
sI1
I0
sI2
I0
sI3
I0
sI4
I0
sI5
I0
sI6
I0
sI7
I0
sI8
I1
sI9
I3
sssI16
(dp51
g3
(dp52
g5
I7
sg6
I7
sg7
I9
sg8
I1
sg9
I8
sg10
I15
sg11
I1
sg12
I10
sg13
I7
sg14
I6
sg15
I6
sg16
I9
sg17
I9
sg18
I7
sg19
I0
sg20
I10
sg21
I8
sg22
I7
sg23
I8
sg24
I9
ssg25
(dp53
I0
I0
sI1
I0
sI2
I0
sI3
I0
sI4
I0
sI5
I0
sI6
I0
sI7
I0
sI8
I1
sI9
I1
sssI512
(dp54
g3
(dp55
g5
I241
sg6
I256
sg7
I271
sg8
I1
sg9
I255
sg10
I511
sg11
I1
sg12
I274
sg13
I250
sg14
I238
sg15
I248
sg16
I262
sg17
I273
sg18
I239
sg19
I0
sg20
I264
sg21
I244
sg22
I232
sg23
I268
sg24
I280
ssg25
(dp56
I0
I0
sI1
I0
sI2
I0
sI3
I0
sI4
I0
sI5
I0
sI6
I0
sI7
I0
sI8
I1
sI9
I3
sss.