(dp1
I32
(dp2
S'visit_count'
p3
(dp4
(I7
I3
tp5
I0
s(I10
I4
tp6
I0
s(I1
I3
tp7
I0
s(I12
I1
tp8
I0
s(I9
I1
tp9
I0
s(I9
I3
tp10
I0
s(I3
I0
tp11
I0
s(I14
I4
tp12
I0
s(I11
I2
tp13
I0
s(I8
I0
tp14
I0
s(I5
I4
tp15
I0
s(I2
I1
tp16
I0
s(I15
I1
tp17
I0
s(I6
I2
tp18
I0
s(I14
I0
tp19
I0
s(I9
I4
tp20
I0
s(I13
I2
tp21
I0
s(I5
I1
tp22
I0
s(I0
I3
tp23
I0
s(I10
I3
tp24
I0
s(I7
I2
tp25
I0
s(I4
I0
tp26
I0
s(I1
I2
tp27
I0
s(I12
I2
tp28
I0
s(I9
I0
tp29
I0
s(I3
I3
tp30
I0
s(I13
I3
tp31
I0
s(I8
I1
tp32
I0
s(I4
I4
tp33
I0
s(I15
I0
tp34
I0
s(I6
I3
tp35
I0
s(I14
I1
tp36
I0
s(I11
I1
tp37
I0
s(I13
I4
tp38
I0
s(I5
I0
tp39
I0
s(I2
I2
tp40
I0
s(I15
I4
tp41
I0
s(I10
I0
tp42
I0
s(I4
I1
tp43
I0
s(I1
I1
tp44
I0
s(I12
I3
tp45
I0
s(I6
I4
tp46
I0
s(I3
I2
tp47
I0
s(I0
I0
tp48
I0
s(I11
I4
tp49
I0
s(I8
I2
tp50
I0
s(I7
I1
tp51
I0
s(I15
I3
tp52
I0
s(I0
I4
tp53
I0
s(I6
I0
tp54
I0
s(I1
I4
tp55
I0
s(I11
I0
tp56
I0
s(I2
I3
tp57
I0
s(I10
I1
tp58
I0
s(I4
I2
tp59
I0
s(I1
I0
tp60
I0
s(I14
I2
tp61
I0
s(I5
I3
tp62
I0
s(I0
I1
tp63
I0
s(I13
I1
tp64
I0
s(I8
I3
tp65
I0
s(I7
I0
tp66
I0
s(I15
I2
tp67
I0
s(I12
I0
tp68
I0
s(I9
I2
tp69
I0
s(I5
I2
tp70
I0
s(I6
I1
tp71
I0
s(I3
I1
tp72
I0
s(I11
I3
tp73
I0
s(I2
I4
tp74
I0
s(I7
I4
tp75
I0
s(I2
I0
tp76
I0
s(I12
I4
tp77
I0
s(I4
I3
tp78
I0
s(I14
I3
tp79
I0
s(I10
I2
tp80
I0
s(I3
I4
tp81
I0
s(I0
I2
tp82
I0
s(I13
I0
tp83
I0
s(I8
I4
tp84
I0
ssS'query_count'
p85
(dp86
(I7
I3
tp87
I0
s(I10
I4
tp88
I0
s(I1
I3
tp89
I0
s(I12
I1
tp90
I0
s(I9
I1
tp91
I0
s(I9
I3
tp92
I0
s(I3
I0
tp93
I0
s(I14
I4
tp94
I0
s(I11
I2
tp95
I0
s(I8
I0
tp96
I0
s(I5
I4
tp97
I0
s(I2
I1
tp98
I0
s(I15
I1
tp99
I0
s(I6
I2
tp100
I0
s(I14
I0
tp101
I0
s(I9
I4
tp102
I0
s(I13
I2
tp103
I0
s(I5
I1
tp104
I0
s(I0
I3
tp105
I0
s(I10
I3
tp106
I0
s(I7
I2
tp107
I0
s(I4
I0
tp108
I0
s(I1
I2
tp109
I0
s(I12
I2
tp110
I0
s(I9
I0
tp111
I0
s(I3
I3
tp112
I0
s(I13
I3
tp113
I0
s(I8
I1
tp114
I0
s(I4
I4
tp115
I0
s(I15
I0
tp116
I0
s(I6
I3
tp117
I0
s(I14
I1
tp118
I0
s(I11
I1
tp119
I0
s(I13
I4
tp120
I0
s(I5
I0
tp121
I0
s(I2
I2
tp122
I0
s(I15
I4
tp123
I0
s(I10
I0
tp124
I0
s(I4
I1
tp125
I0
s(I1
I1
tp126
I0
s(I12
I3
tp127
I0
s(I6
I4
tp128
I0
s(I3
I2
tp129
I0
s(I0
I0
tp130
I0
s(I11
I4
tp131
I0
s(I8
I2
tp132
I0
s(I7
I1
tp133
I0
s(I15
I3
tp134
I0
s(I0
I4
tp135
I0
s(I6
I0
tp136
I0
s(I1
I4
tp137
I0
s(I11
I0
tp138
I0
s(I2
I3
tp139
I0
s(I10
I1
tp140
I0
s(I4
I2
tp141
I0
s(I1
I0
tp142
I0
s(I14
I2
tp143
I0
s(I5
I3
tp144
I0
s(I0
I1
tp145
I0
s(I13
I1
tp146
I0
s(I8
I3
tp147
I0
s(I7
I0
tp148
I0
s(I15
I2
tp149
I0
s(I12
I0
tp150
I0
s(I9
I2
tp151
I0
s(I5
I2
tp152
I0
s(I6
I1
tp153
I0
s(I3
I1
tp154
I0
s(I11
I3
tp155
I0
s(I2
I4
tp156
I0
s(I7
I4
tp157
I0
s(I2
I0
tp158
I0
s(I12
I4
tp159
I0
s(I4
I3
tp160
I0
s(I14
I3
tp161
I0
s(I10
I2
tp162
I0
s(I3
I4
tp163
I0
s(I0
I2
tp164
I0
s(I13
I0
tp165
I0
s(I8
I4
tp166
I0
sssI1
(dp167
g3
g4
sg85
g86
ssI2
(dp168
g3
g4
sg85
g86
ssI4
(dp169
g3
g4
sg85
g86
ssI1024
(dp170
g3
g4
sg85
g86
ssI8
(dp171
g3
g4
sg85
g86
ssI64
(dp172
g3
g4
sg85
g86
ssI128
(dp173
g3
g4
sg85
g86
ssI256
(dp174
g3
g4
sg85
g86
ssI16
(dp175
g3
g4
sg85
g86
ssI512
(dp176
g3
g4
sg85
g86
ss.