(dp1
I32
(dp2
S'visit_count'
p3
(dp4
(I7
I3
tp5
I74
s(I1
I3
tp6
I2055
s(I12
I1
tp7
I81
s(I9
I1
tp8
I104
s(I3
I0
tp9
I138
s(I14
I4
tp10
I25
s(I11
I2
tp11
I28
s(I8
I0
tp12
I338
s(I3
I2
tp13
I120
s(I2
I1
tp14
I307
s(I15
I1
tp15
I0
s(I6
I2
tp16
I258
s(I14
I0
tp17
I30
s(I9
I4
tp18
I112
s(I4
I2
tp19
I2088
s(I5
I1
tp20
I328
s(I0
I3
tp21
I5518
s(I10
I3
tp22
I107
s(I7
I2
tp23
I96
s(I4
I0
tp24
I938
s(I1
I2
tp25
I1821
s(I12
I2
tp26
I192
s(I9
I0
tp27
I217
s(I3
I3
tp28
I86
s(I0
I2
tp29
I5376
s(I13
I3
tp30
I114
s(I8
I1
tp31
I198
s(I4
I4
tp32
I893
s(I15
I0
tp33
I0
s(I6
I3
tp34
I1407
s(I11
I4
tp35
I25
s(I14
I1
tp36
I22
s(I11
I1
tp37
I23
s(I5
I0
tp38
I992
s(I2
I2
tp39
I365
s(I15
I4
tp40
I0
s(I10
I0
tp41
I2372
s(I4
I1
tp42
I840
s(I13
I4
tp43
I41
s(I12
I3
tp44
I151
s(I6
I4
tp45
I111
s(I5
I4
tp46
I329
s(I0
I0
tp47
I3170
s(I13
I2
tp48
I59
s(I10
I4
tp49
I34
s(I7
I1
tp50
I38
s(I15
I3
tp51
I0
s(I9
I3
tp52
I130
s(I6
I0
tp53
I406
s(I1
I4
tp54
I873
s(I11
I0
tp55
I30
s(I2
I3
tp56
I905
s(I10
I1
tp57
I35
s(I0
I4
tp58
I3198
s(I1
I0
tp59
I901
s(I14
I2
tp60
I29
s(I5
I3
tp61
I1051
s(I0
I1
tp62
I3060
s(I13
I1
tp63
I36
s(I8
I3
tp64
I504
s(I7
I0
tp65
I97
s(I15
I2
tp66
I0
s(I12
I0
tp67
I129
s(I9
I2
tp68
I1303
s(I3
I4
tp69
I60
s(I6
I1
tp70
I98
s(I3
I1
tp71
I140
s(I11
I3
tp72
I32
s(I8
I2
tp73
I891
s(I1
I1
tp74
I845
s(I7
I4
tp75
I49
s(I2
I0
tp76
I321
s(I12
I4
tp77
I162
s(I4
I3
tp78
I1917
s(I14
I3
tp79
I34
s(I8
I4
tp80
I302
s(I5
I2
tp81
I1437
s(I2
I4
tp82
I208
s(I13
I0
tp83
I93
s(I10
I2
tp84
I98
ssS'query_count'
p85
(dp86
(I7
I3
tp87
I6
s(I1
I3
tp88
I1
s(I12
I1
tp89
I4
s(I9
I1
tp90
I8
s(I3
I0
tp91
I1
s(I14
I4
tp92
I2
s(I11
I2
tp93
I4
s(I8
I0
tp94
I4
s(I3
I2
tp95
I1
s(I2
I1
tp96
I5
s(I15
I1
tp97
I0
s(I6
I2
tp98
I0
s(I14
I0
tp99
I2
s(I9
I4
tp100
I7
s(I4
I2
tp101
I0
s(I5
I1
tp102
I3
s(I0
I3
tp103
I3
s(I10
I3
tp104
I1
s(I7
I2
tp105
I3
s(I4
I0
tp106
I4
s(I1
I2
tp107
I1
s(I12
I2
tp108
I4
s(I9
I0
tp109
I2
s(I3
I3
tp110
I1
s(I0
I2
tp111
I1
s(I13
I3
tp112
I3
s(I8
I1
tp113
I1
s(I4
I4
tp114
I6
s(I15
I0
tp115
I0
s(I6
I3
tp116
I0
s(I11
I4
tp117
I3
s(I14
I1
tp118
I2
s(I11
I1
tp119
I3
s(I5
I0
tp120
I0
s(I2
I2
tp121
I3
s(I15
I4
tp122
I0
s(I10
I0
tp123
I1
s(I4
I1
tp124
I7
s(I13
I4
tp125
I3
s(I12
I3
tp126
I1
s(I6
I4
tp127
I10
s(I5
I4
tp128
I5
s(I0
I0
tp129
I0
s(I13
I2
tp130
I1
s(I10
I4
tp131
I9
s(I7
I1
tp132
I0
s(I15
I3
tp133
I0
s(I9
I3
tp134
I2
s(I6
I0
tp135
I5
s(I1
I4
tp136
I4
s(I11
I0
tp137
I4
s(I2
I3
tp138
I1
s(I10
I1
tp139
I7
s(I0
I4
tp140
I0
s(I1
I0
tp141
I3
s(I14
I2
tp142
I2
s(I5
I3
tp143
I1
s(I0
I1
tp144
I0
s(I13
I1
tp145
I4
s(I8
I3
tp146
I1
s(I7
I0
tp147
I3
s(I15
I2
tp148
I0
s(I12
I0
tp149
I2
s(I9
I2
tp150
I1
s(I3
I4
tp151
I2
s(I6
I1
tp152
I5
s(I3
I1
tp153
I1
s(I11
I3
tp154
I2
s(I8
I2
tp155
I1
s(I1
I1
tp156
I1
s(I7
I4
tp157
I5
s(I2
I0
tp158
I3
s(I12
I4
tp159
I3
s(I4
I3
tp160
I1
s(I14
I3
tp161
I2
s(I8
I4
tp162
I2
s(I5
I2
tp163
I0
s(I2
I4
tp164
I5
s(I13
I0
tp165
I4
s(I10
I2
tp166
I2
sssI1
(dp167
g3
(dp168
g5
I74
sg6
I2049
sg7
I80
sg8
I103
sg9
I138
sg10
I25
sg11
I28
sg12
I338
sg13
I120
sg14
I305
sg15
I0
sg16
I258
sg17
I30
sg18
I111
sg19
I2087
sg20
I327
sg21
I5509
sg22
I107
sg23
I96
sg24
I937
sg25
I1818
sg26
I191
sg27
I216
sg28
I86
sg29
I5356
sg30
I114
sg31
I196
sg32
I892
sg33
I0
sg34
I1407
sg35
I25
sg36
I22
sg37
I23
sg38
I992
sg39
I365
sg40
I0
sg41
I2372
sg42
I834
sg43
I41
sg44
I151
sg45
I111
sg46
I329
sg47
I3156
sg48
I59
sg49
I34
sg50
I38
sg51
I0
sg52
I130
sg53
I406
sg54
I865
sg55
I30
sg56
I905
sg57
I35
sg58
I3189
sg59
I897
sg60
I29
sg61
I1048
sg62
I3051
sg63
I36
sg64
I501
sg65
I97
sg66
I0
sg67
I129
sg68
I1303
sg69
I60
sg70
I98
sg71
I140
sg72
I32
sg73
I891
sg74
I840
sg75
I49
sg76
I319
sg77
I161
sg78
I1914
sg79
I34
sg80
I301
sg81
I1437
sg82
I207
sg83
I93
sg84
I98
ssg85
(dp169
g87
I6
sg88
I1
sg89
I4
sg90
I8
sg91
I1
sg92
I2
sg93
I4
sg94
I4
sg95
I1
sg96
I5
sg97
I0
sg98
I0
sg99
I2
sg100
I7
sg101
I0
sg102
I3
sg103
I3
sg104
I1
sg105
I3
sg106
I4
sg107
I1
sg108
I4
sg109
I2
sg110
I1
sg111
I1
sg112
I3
sg113
I1
sg114
I6
sg115
I0
sg116
I0
sg117
I3
sg118
I2
sg119
I3
sg120
I0
sg121
I3
sg122
I0
sg123
I1
sg124
I7
sg125
I3
sg126
I1
sg127
I10
sg128
I5
sg129
I0
sg130
I1
sg131
I9
sg132
I0
sg133
I0
sg134
I2
sg135
I5
sg136
I4
sg137
I4
sg138
I1
sg139
I7
sg140
I0
sg141
I3
sg142
I2
sg143
I1
sg144
I0
sg145
I4
sg146
I1
sg147
I3
sg148
I0
sg149
I2
sg150
I1
sg151
I2
sg152
I5
sg153
I1
sg154
I2
sg155
I1
sg156
I1
sg157
I5
sg158
I3
sg159
I3
sg160
I1
sg161
I2
sg162
I2
sg163
I0
sg164
I5
sg165
I4
sg166
I2
sssI2
(dp170
g3
(dp171
g5
I74
sg6
I2049
sg7
I80
sg8
I103
sg9
I138
sg10
I25
sg11
I28
sg12
I338
sg13
I120
sg14
I305
sg15
I0
sg16
I258
sg17
I30
sg18
I111
sg19
I2087
sg20
I327
sg21
I5509
sg22
I107
sg23
I96
sg24
I937
sg25
I1818
sg26
I191
sg27
I216
sg28
I86
sg29
I5357
sg30
I114
sg31
I196
sg32
I892
sg33
I0
sg34
I1407
sg35
I25
sg36
I22
sg37
I23
sg38
I992
sg39
I365
sg40
I0
sg41
I2372
sg42
I834
sg43
I41
sg44
I151
sg45
I111
sg46
I329
sg47
I3156
sg48
I59
sg49
I34
sg50
I38
sg51
I0
sg52
I130
sg53
I406
sg54
I865
sg55
I30
sg56
I905
sg57
I35
sg58
I3189
sg59
I898
sg60
I29
sg61
I1048
sg62
I3051
sg63
I36
sg64
I501
sg65
I97
sg66
I0
sg67
I129
sg68
I1303
sg69
I60
sg70
I98
sg71
I140
sg72
I32
sg73
I891
sg74
I840
sg75
I49
sg76
I319
sg77
I161
sg78
I1914
sg79
I34
sg80
I301
sg81
I1437
sg82
I207
sg83
I93
sg84
I98
ssg85
(dp172
g87
I6
sg88
I1
sg89
I4
sg90
I8
sg91
I1
sg92
I2
sg93
I4
sg94
I4
sg95
I1
sg96
I5
sg97
I0
sg98
I0
sg99
I2
sg100
I7
sg101
I0
sg102
I3
sg103
I3
sg104
I1
sg105
I3
sg106
I4
sg107
I1
sg108
I4
sg109
I2
sg110
I1
sg111
I1
sg112
I3
sg113
I1
sg114
I6
sg115
I0
sg116
I0
sg117
I3
sg118
I2
sg119
I3
sg120
I0
sg121
I3
sg122
I0
sg123
I1
sg124
I7
sg125
I3
sg126
I1
sg127
I10
sg128
I5
sg129
I0
sg130
I1
sg131
I9
sg132
I0
sg133
I0
sg134
I2
sg135
I5
sg136
I4
sg137
I4
sg138
I1
sg139
I7
sg140
I0
sg141
I3
sg142
I2
sg143
I1
sg144
I0
sg145
I4
sg146
I1
sg147
I3
sg148
I0
sg149
I2
sg150
I1
sg151
I2
sg152
I5
sg153
I1
sg154
I2
sg155
I1
sg156
I1
sg157
I5
sg158
I3
sg159
I3
sg160
I1
sg161
I2
sg162
I2
sg163
I0
sg164
I5
sg165
I4
sg166
I2
sssI4
(dp173
g3
(dp174
g5
I74
sg6
I2049
sg7
I80
sg8
I103
sg9
I138
sg10
I25
sg11
I28
sg12
I338
sg13
I120
sg14
I305
sg15
I0
sg16
I258
sg17
I30
sg18
I111
sg19
I2087
sg20
I327
sg21
I5509
sg22
I107
sg23
I96
sg24
I937
sg25
I1818
sg26
I191
sg27
I216
sg28
I86
sg29
I5359
sg30
I114
sg31
I196
sg32
I892
sg33
I0
sg34
I1407
sg35
I25
sg36
I22
sg37
I23
sg38
I992
sg39
I365
sg40
I0
sg41
I2372
sg42
I834
sg43
I41
sg44
I151
sg45
I111
sg46
I329
sg47
I3157
sg48
I59
sg49
I34
sg50
I38
sg51
I0
sg52
I130
sg53
I406
sg54
I866
sg55
I30
sg56
I905
sg57
I35
sg58
I3189
sg59
I899
sg60
I29
sg61
I1048
sg62
I3052
sg63
I36
sg64
I501
sg65
I97
sg66
I0
sg67
I129
sg68
I1303
sg69
I60
sg70
I98
sg71
I140
sg72
I32
sg73
I891
sg74
I841
sg75
I49
sg76
I319
sg77
I161
sg78
I1914
sg79
I34
sg80
I301
sg81
I1437
sg82
I207
sg83
I93
sg84
I98
ssg85
(dp175
g87
I6
sg88
I1
sg89
I4
sg90
I8
sg91
I1
sg92
I2
sg93
I4
sg94
I4
sg95
I1
sg96
I5
sg97
I0
sg98
I0
sg99
I2
sg100
I7
sg101
I0
sg102
I3
sg103
I3
sg104
I1
sg105
I3
sg106
I4
sg107
I1
sg108
I4
sg109
I2
sg110
I1
sg111
I1
sg112
I3
sg113
I1
sg114
I6
sg115
I0
sg116
I0
sg117
I3
sg118
I2
sg119
I3
sg120
I0
sg121
I3
sg122
I0
sg123
I1
sg124
I7
sg125
I3
sg126
I1
sg127
I10
sg128
I5
sg129
I0
sg130
I1
sg131
I9
sg132
I0
sg133
I0
sg134
I2
sg135
I5
sg136
I4
sg137
I4
sg138
I1
sg139
I7
sg140
I0
sg141
I3
sg142
I2
sg143
I1
sg144
I0
sg145
I4
sg146
I1
sg147
I3
sg148
I0
sg149
I2
sg150
I1
sg151
I2
sg152
I5
sg153
I1
sg154
I2
sg155
I1
sg156
I1
sg157
I5
sg158
I3
sg159
I3
sg160
I1
sg161
I2
sg162
I2
sg163
I0
sg164
I5
sg165
I4
sg166
I2
sssI8
(dp176
g3
(dp177
g5
I74
sg6
I2049
sg7
I80
sg8
I103
sg9
I138
sg10
I25
sg11
I28
sg12
I338
sg13
I120
sg14
I305
sg15
I0
sg16
I258
sg17
I30
sg18
I111
sg19
I2087
sg20
I327
sg21
I5513
sg22
I107
sg23
I96
sg24
I937
sg25
I1818
sg26
I191
sg27
I216
sg28
I86
sg29
I5360
sg30
I114
sg31
I196
sg32
I892
sg33
I0
sg34
I1407
sg35
I25
sg36
I22
sg37
I23
sg38
I992
sg39
I365
sg40
I0
sg41
I2372
sg42
I838
sg43
I41
sg44
I151
sg45
I111
sg46
I329
sg47
I3159
sg48
I59
sg49
I34
sg50
I38
sg51
I0
sg52
I130
sg53
I406
sg54
I866
sg55
I30
sg56
I905
sg57
I35
sg58
I3191
sg59
I900
sg60
I29
sg61
I1048
sg62
I3053
sg63
I36
sg64
I501
sg65
I97
sg66
I0
sg67
I129
sg68
I1303
sg69
I60
sg70
I98
sg71
I140
sg72
I32
sg73
I891
sg74
I841
sg75
I49
sg76
I319
sg77
I161
sg78
I1914
sg79
I34
sg80
I301
sg81
I1437
sg82
I207
sg83
I93
sg84
I98
ssg85
(dp178
g87
I6
sg88
I1
sg89
I4
sg90
I8
sg91
I1
sg92
I2
sg93
I4
sg94
I4
sg95
I1
sg96
I5
sg97
I0
sg98
I0
sg99
I2
sg100
I7
sg101
I0
sg102
I3
sg103
I3
sg104
I1
sg105
I3
sg106
I4
sg107
I1
sg108
I4
sg109
I2
sg110
I1
sg111
I1
sg112
I3
sg113
I1
sg114
I6
sg115
I0
sg116
I0
sg117
I3
sg118
I2
sg119
I3
sg120
I0
sg121
I3
sg122
I0
sg123
I1
sg124
I7
sg125
I3
sg126
I1
sg127
I10
sg128
I5
sg129
I0
sg130
I1
sg131
I9
sg132
I0
sg133
I0
sg134
I2
sg135
I5
sg136
I4
sg137
I4
sg138
I1
sg139
I7
sg140
I0
sg141
I3
sg142
I2
sg143
I1
sg144
I0
sg145
I4
sg146
I1
sg147
I3
sg148
I0
sg149
I2
sg150
I1
sg151
I2
sg152
I5
sg153
I1
sg154
I2
sg155
I1
sg156
I1
sg157
I5
sg158
I3
sg159
I3
sg160
I1
sg161
I2
sg162
I2
sg163
I0
sg164
I5
sg165
I4
sg166
I2
sssI64
(dp179
g3
(dp180
g5
I74
sg6
I2061
sg7
I82
sg8
I104
sg9
I138
sg10
I25
sg11
I28
sg12
I338
sg13
I120
sg14
I307
sg15
I0
sg16
I261
sg17
I30
sg18
I113
sg19
I2093
sg20
I329
sg21
I5531
sg22
I107
sg23
I97
sg24
I941
sg25
I1824
sg26
I192
sg27
I217
sg28
I86
sg29
I5386
sg30
I114
sg31
I200
sg32
I897
sg33
I0
sg34
I1407
sg35
I25
sg36
I22
sg37
I23
sg38
I993
sg39
I365
sg40
I0
sg41
I2372
sg42
I844
sg43
I41
sg44
I151
sg45
I111
sg46
I331
sg47
I3183
sg48
I59
sg49
I34
sg50
I38
sg51
I0
sg52
I130
sg53
I407
sg54
I874
sg55
I30
sg56
I906
sg57
I35
sg58
I3208
sg59
I903
sg60
I29
sg61
I1052
sg62
I3080
sg63
I36
sg64
I507
sg65
I97
sg66
I0
sg67
I130
sg68
I1303
sg69
I60
sg70
I99
sg71
I140
sg72
I32
sg73
I892
sg74
I846
sg75
I51
sg76
I321
sg77
I162
sg78
I1921
sg79
I34
sg80
I304
sg81
I1441
sg82
I209
sg83
I93
sg84
I98
ssg85
(dp181
g87
I6
sg88
I1
sg89
I4
sg90
I8
sg91
I1
sg92
I2
sg93
I4
sg94
I4
sg95
I1
sg96
I5
sg97
I0
sg98
I0
sg99
I2
sg100
I7
sg101
I0
sg102
I3
sg103
I3
sg104
I1
sg105
I3
sg106
I4
sg107
I1
sg108
I4
sg109
I2
sg110
I1
sg111
I1
sg112
I3
sg113
I1
sg114
I6
sg115
I0
sg116
I0
sg117
I3
sg118
I2
sg119
I3
sg120
I0
sg121
I3
sg122
I0
sg123
I1
sg124
I7
sg125
I3
sg126
I1
sg127
I10
sg128
I5
sg129
I0
sg130
I1
sg131
I9
sg132
I0
sg133
I0
sg134
I2
sg135
I5
sg136
I4
sg137
I4
sg138
I1
sg139
I7
sg140
I0
sg141
I3
sg142
I2
sg143
I1
sg144
I0
sg145
I4
sg146
I1
sg147
I3
sg148
I0
sg149
I2
sg150
I1
sg151
I2
sg152
I5
sg153
I1
sg154
I2
sg155
I1
sg156
I1
sg157
I5
sg158
I3
sg159
I3
sg160
I1
sg161
I2
sg162
I2
sg163
I0
sg164
I5
sg165
I4
sg166
I2
sssI128
(dp182
g3
(dp183
g5
I75
sg6
I2069
sg7
I83
sg8
I104
sg9
I138
sg10
I25
sg11
I28
sg12
I340
sg13
I121
sg14
I308
sg15
I0
sg16
I261
sg17
I30
sg18
I113
sg19
I2100
sg20
I333
sg21
I5554
sg22
I107
sg23
I97
sg24
I945
sg25
I1828
sg26
I192
sg27
I218
sg28
I88
sg29
I5405
sg30
I114
sg31
I201
sg32
I900
sg33
I0
sg34
I1407
sg35
I25
sg36
I22
sg37
I23
sg38
I995
sg39
I369
sg40
I0
sg41
I2372
sg42
I853
sg43
I41
sg44
I151
sg45
I112
sg46
I335
sg47
I3215
sg48
I59
sg49
I34
sg50
I38
sg51
I0
sg52
I130
sg53
I407
sg54
I878
sg55
I30
sg56
I906
sg57
I35
sg58
I3234
sg59
I909
sg60
I29
sg61
I1053
sg62
I3106
sg63
I36
sg64
I509
sg65
I97
sg66
I0
sg67
I130
sg68
I1303
sg69
I61
sg70
I99
sg71
I140
sg72
I32
sg73
I892
sg74
I855
sg75
I51
sg76
I322
sg77
I163
sg78
I1926
sg79
I34
sg80
I305
sg81
I1442
sg82
I209
sg83
I93
sg84
I98
ssg85
(dp184
g87
I6
sg88
I1
sg89
I4
sg90
I8
sg91
I1
sg92
I2
sg93
I4
sg94
I4
sg95
I1
sg96
I5
sg97
I0
sg98
I0
sg99
I2
sg100
I7
sg101
I0
sg102
I3
sg103
I3
sg104
I1
sg105
I3
sg106
I4
sg107
I1
sg108
I4
sg109
I2
sg110
I1
sg111
I1
sg112
I3
sg113
I1
sg114
I6
sg115
I0
sg116
I0
sg117
I3
sg118
I2
sg119
I3
sg120
I0
sg121
I3
sg122
I0
sg123
I1
sg124
I7
sg125
I3
sg126
I1
sg127
I10
sg128
I5
sg129
I0
sg130
I1
sg131
I9
sg132
I0
sg133
I0
sg134
I2
sg135
I5
sg136
I4
sg137
I4
sg138
I1
sg139
I7
sg140
I0
sg141
I3
sg142
I2
sg143
I1
sg144
I0
sg145
I4
sg146
I1
sg147
I3
sg148
I0
sg149
I2
sg150
I1
sg151
I2
sg152
I5
sg153
I1
sg154
I2
sg155
I1
sg156
I1
sg157
I5
sg158
I3
sg159
I3
sg160
I1
sg161
I2
sg162
I2
sg163
I0
sg164
I5
sg165
I4
sg166
I2
sssI16
(dp185
g3
(dp186
g5
I74
sg6
I2049
sg7
I81
sg8
I103
sg9
I138
sg10
I25
sg11
I28
sg12
I338
sg13
I120
sg14
I305
sg15
I0
sg16
I258
sg17
I30
sg18
I111
sg19
I2087
sg20
I327
sg21
I5517
sg22
I107
sg23
I96
sg24
I938
sg25
I1818
sg26
I192
sg27
I216
sg28
I86
sg29
I5364
sg30
I114
sg31
I196
sg32
I892
sg33
I0
sg34
I1407
sg35
I25
sg36
I22
sg37
I23
sg38
I992
sg39
I365
sg40
I0
sg41
I2372
sg42
I839
sg43
I41
sg44
I151
sg45
I111
sg46
I329
sg47
I3163
sg48
I59
sg49
I34
sg50
I38
sg51
I0
sg52
I130
sg53
I406
sg54
I869
sg55
I30
sg56
I905
sg57
I35
sg58
I3193
sg59
I900
sg60
I29
sg61
I1048
sg62
I3054
sg63
I36
sg64
I504
sg65
I97
sg66
I0
sg67
I129
sg68
I1303
sg69
I60
sg70
I98
sg71
I140
sg72
I32
sg73
I891
sg74
I843
sg75
I49
sg76
I319
sg77
I162
sg78
I1916
sg79
I34
sg80
I302
sg81
I1437
sg82
I207
sg83
I93
sg84
I98
ssg85
(dp187
g87
I6
sg88
I1
sg89
I4
sg90
I8
sg91
I1
sg92
I2
sg93
I4
sg94
I4
sg95
I1
sg96
I5
sg97
I0
sg98
I0
sg99
I2
sg100
I7
sg101
I0
sg102
I3
sg103
I3
sg104
I1
sg105
I3
sg106
I4
sg107
I1
sg108
I4
sg109
I2
sg110
I1
sg111
I1
sg112
I3
sg113
I1
sg114
I6
sg115
I0
sg116
I0
sg117
I3
sg118
I2
sg119
I3
sg120
I0
sg121
I3
sg122
I0
sg123
I1
sg124
I7
sg125
I3
sg126
I1
sg127
I10
sg128
I5
sg129
I0
sg130
I1
sg131
I9
sg132
I0
sg133
I0
sg134
I2
sg135
I5
sg136
I4
sg137
I4
sg138
I1
sg139
I7
sg140
I0
sg141
I3
sg142
I2
sg143
I1
sg144
I0
sg145
I4
sg146
I1
sg147
I3
sg148
I0
sg149
I2
sg150
I1
sg151
I2
sg152
I5
sg153
I1
sg154
I2
sg155
I1
sg156
I1
sg157
I5
sg158
I3
sg159
I3
sg160
I1
sg161
I2
sg162
I2
sg163
I0
sg164
I5
sg165
I4
sg166
I2
sss.