(dp1
I32
(dp2
S'visit_count'
p3
(dp4
(I0
I1
tp5
I4
s(I9
I0
tp6
I0
s(I0
I0
tp7
I280
s(I7
I0
tp8
I0
s(I9
I1
tp9
I0
s(I7
I1
tp10
I0
s(I8
I1
tp11
I0
s(I6
I1
tp12
I0
s(I3
I1
tp13
I6
s(I6
I0
tp14
I3
s(I2
I1
tp15
I3
s(I3
I0
tp16
I0
s(I5
I0
tp17
I2
s(I5
I1
tp18
I4
s(I8
I0
tp19
I0
s(I2
I0
tp20
I4
s(I1
I0
tp21
I0
s(I4
I1
tp22
I3
s(I1
I1
tp23
I8
s(I4
I0
tp24
I3
ssS'query_count'
p25
(dp26
(I0
I1
tp27
I0
s(I9
I0
tp28
I0
s(I0
I0
tp29
I20
s(I7
I0
tp30
I0
s(I9
I1
tp31
I0
s(I7
I1
tp32
I0
s(I8
I1
tp33
I0
s(I6
I1
tp34
I0
s(I3
I1
tp35
I4
s(I6
I0
tp36
I0
s(I2
I1
tp37
I0
s(I3
I0
tp38
I0
s(I5
I0
tp39
I1
s(I5
I1
tp40
I2
s(I8
I0
tp41
I0
s(I2
I0
tp42
I4
s(I1
I0
tp43
I0
s(I4
I1
tp44
I1
s(I1
I1
tp45
I5
s(I4
I0
tp46
I0
sssI1
(dp47
g3
(dp48
g5
I1
sg6
I0
sg7
I0
sg8
I0
sg9
I0
sg10
I0
sg11
I0
sg12
I0
sg13
I4
sg14
I0
sg15
I1
sg16
I0
sg17
I0
sg18
I0
sg19
I0
sg20
I0
sg21
I0
sg22
I0
sg23
I1
sg24
I3
ssg25
(dp49
g27
I0
sg28
I0
sg29
I0
sg30
I0
sg31
I0
sg32
I0
sg33
I0
sg34
I0
sg35
I4
sg36
I0
sg37
I0
sg38
I0
sg39
I0
sg40
I0
sg41
I0
sg42
I0
sg43
I0
sg44
I0
sg45
I0
sg46
I0
sssI2
(dp50
g3
(dp51
g5
I2
sg6
I0
sg7
I0
sg8
I0
sg9
I0
sg10
I0
sg11
I0
sg12
I0
sg13
I4
sg14
I0
sg15
I1
sg16
I0
sg17
I0
sg18
I0
sg19
I0
sg20
I4
sg21
I0
sg22
I0
sg23
I6
sg24
I3
ssg25
(dp52
g27
I0
sg28
I0
sg29
I0
sg30
I0
sg31
I0
sg32
I0
sg33
I0
sg34
I0
sg35
I4
sg36
I0
sg37
I0
sg38
I0
sg39
I0
sg40
I0
sg41
I0
sg42
I4
sg43
I0
sg44
I0
sg45
I5
sg46
I0
sssI4
(dp53
g3
(dp54
g5
I4
sg6
I0
sg7
I0
sg8
I0
sg9
I0
sg10
I0
sg11
I0
sg12
I0
sg13
I6
sg14
I3
sg15
I3
sg16
I0
sg17
I2
sg18
I4
sg19
I0
sg20
I4
sg21
I0
sg22
I3
sg23
I8
sg24
I3
ssg25
(dp55
g27
I0
sg28
I0
sg29
I0
sg30
I0
sg31
I0
sg32
I0
sg33
I0
sg34
I0
sg35
I4
sg36
I0
sg37
I0
sg38
I0
sg39
I1
sg40
I2
sg41
I0
sg42
I4
sg43
I0
sg44
I1
sg45
I5
sg46
I0
sssI1024
(dp56
g3
(dp57
g5
I831
sg6
I2
sg7
I2357
sg8
I7
sg9
I734
sg10
I742
sg11
I736
sg12
I748
sg13
I778
sg14
I11
sg15
I798
sg16
I34
sg17
I15
sg18
I759
sg19
I4
sg20
I36
sg21
I50
sg22
I766
sg23
I814
sg24
I18
ssg25
(dp58
g27
I55
sg28
I2
sg29
I129
sg30
I4
sg31
I41
sg32
I37
sg33
I34
sg34
I38
sg35
I52
sg36
I8
sg37
I55
sg38
I20
sg39
I12
sg40
I42
sg41
I3
sg42
I17
sg43
I43
sg44
I43
sg45
I61
sg46
I15
sssI8
(dp59
g3
(dp60
g5
I4
sg6
I0
sg7
I40
sg8
I0
sg9
I0
sg10
I0
sg11
I0
sg12
I0
sg13
I6
sg14
I3
sg15
I3
sg16
I0
sg17
I2
sg18
I4
sg19
I0
sg20
I4
sg21
I0
sg22
I3
sg23
I8
sg24
I3
ssg25
(dp61
g27
I0
sg28
I0
sg29
I10
sg30
I0
sg31
I0
sg32
I0
sg33
I0
sg34
I0
sg35
I4
sg36
I0
sg37
I0
sg38
I0
sg39
I1
sg40
I2
sg41
I0
sg42
I4
sg43
I0
sg44
I1
sg45
I5
sg46
I0
sssI64
(dp62
g3
(dp63
g5
I4
sg6
I0
sg7
I600
sg8
I0
sg9
I0
sg10
I0
sg11
I0
sg12
I0
sg13
I6
sg14
I3
sg15
I3
sg16
I0
sg17
I2
sg18
I4
sg19
I0
sg20
I4
sg21
I0
sg22
I3
sg23
I8
sg24
I3
ssg25
(dp64
g27
I0
sg28
I0
sg29
I20
sg30
I0
sg31
I0
sg32
I0
sg33
I0
sg34
I0
sg35
I4
sg36
I0
sg37
I0
sg38
I0
sg39
I1
sg40
I2
sg41
I0
sg42
I4
sg43
I0
sg44
I1
sg45
I5
sg46
I0
sssI128
(dp65
g3
(dp66
g5
I4
sg6
I0
sg7
I1240
sg8
I0
sg9
I0
sg10
I0
sg11
I0
sg12
I0
sg13
I6
sg14
I3
sg15
I3
sg16
I0
sg17
I2
sg18
I4
sg19
I0
sg20
I4
sg21
I0
sg22
I3
sg23
I8
sg24
I3
ssg25
(dp67
g27
I0
sg28
I0
sg29
I20
sg30
I0
sg31
I0
sg32
I0
sg33
I0
sg34
I0
sg35
I4
sg36
I0
sg37
I0
sg38
I0
sg39
I1
sg40
I2
sg41
I0
sg42
I4
sg43
I0
sg44
I1
sg45
I5
sg46
I0
sssI256
(dp68
g3
(dp69
g5
I31
sg6
I0
sg7
I2310
sg8
I6
sg9
I8
sg10
I10
sg11
I8
sg12
I17
sg13
I28
sg14
I5
sg15
I29
sg16
I8
sg17
I4
sg18
I20
sg19
I1
sg20
I8
sg21
I5
sg22
I20
sg23
I33
sg24
I9
ssg25
(dp70
g27
I8
sg28
I0
sg29
I114
sg30
I3
sg31
I1
sg32
I2
sg33
I0
sg34
I4
sg35
I12
sg36
I2
sg37
I7
sg38
I6
sg39
I3
sg40
I6
sg41
I0
sg42
I4
sg43
I5
sg44
I5
sg45
I10
sg46
I6
sssI16
(dp71
g3
(dp72
g5
I4
sg6
I0
sg7
I120
sg8
I0
sg9
I0
sg10
I0
sg11
I0
sg12
I0
sg13
I6
sg14
I3
sg15
I3
sg16
I0
sg17
I2
sg18
I4
sg19
I0
sg20
I4
sg21
I0
sg22
I3
sg23
I8
sg24
I3
ssg25
(dp73
g27
I0
sg28
I0
sg29
I10
sg30
I0
sg31
I0
sg32
I0
sg33
I0
sg34
I0
sg35
I4
sg36
I0
sg37
I0
sg38
I0
sg39
I1
sg40
I2
sg41
I0
sg42
I4
sg43
I0
sg44
I1
sg45
I5
sg46
I0
sssI512
(dp74
g3
(dp75
g5
I311
sg6
I2
sg7
I2357
sg8
I7
sg9
I224
sg10
I232
sg11
I226
sg12
I238
sg13
I268
sg14
I11
sg15
I288
sg16
I34
sg17
I15
sg18
I249
sg19
I4
sg20
I36
sg21
I40
sg22
I256
sg23
I304
sg24
I18
ssg25
(dp76
g27
I46
sg28
I2
sg29
I129
sg30
I4
sg31
I23
sg32
I20
sg33
I15
sg34
I18
sg35
I39
sg36
I8
sg37
I38
sg38
I20
sg39
I12
sg40
I29
sg41
I3
sg42
I17
sg43
I37
sg44
I26
sg45
I47
sg46
I15
sss.