(dp1
I32
(dp2
S'visit_count'
p3
(dp4
(I7
I3
tp5
I24
s(I1
I3
tp6
I1604
s(I12
I1
tp7
I18
s(I9
I1
tp8
I22
s(I3
I0
tp9
I72
s(I14
I4
tp10
I14
s(I11
I2
tp11
I2
s(I8
I0
tp12
I228
s(I3
I2
tp13
I92
s(I2
I1
tp14
I326
s(I15
I1
tp15
I0
s(I6
I2
tp16
I101
s(I14
I0
tp17
I6
s(I9
I4
tp18
I32
s(I4
I2
tp19
I2155
s(I5
I1
tp20
I32
s(I0
I3
tp21
I3269
s(I10
I3
tp22
I27
s(I7
I2
tp23
I106
s(I4
I0
tp24
I230
s(I1
I2
tp25
I588
s(I12
I2
tp26
I42
s(I9
I0
tp27
I93
s(I3
I3
tp28
I111
s(I0
I2
tp29
I2433
s(I13
I3
tp30
I46
s(I8
I1
tp31
I28
s(I4
I4
tp32
I324
s(I15
I0
tp33
I0
s(I6
I3
tp34
I755
s(I11
I4
tp35
I5
s(I14
I1
tp36
I10
s(I11
I1
tp37
I3
s(I5
I0
tp38
I2435
s(I2
I2
tp39
I233
s(I15
I4
tp40
I0
s(I10
I0
tp41
I1101
s(I4
I1
tp42
I59
s(I13
I4
tp43
I4
s(I12
I3
tp44
I112
s(I6
I4
tp45
I23
s(I5
I4
tp46
I19
s(I0
I0
tp47
I349
s(I13
I2
tp48
I33
s(I10
I4
tp49
I1
s(I7
I1
tp50
I29
s(I15
I3
tp51
I0
s(I9
I3
tp52
I78
s(I6
I0
tp53
I161
s(I1
I4
tp54
I40
s(I11
I0
tp55
I3
s(I2
I3
tp56
I53
s(I10
I1
tp57
I1
s(I0
I4
tp58
I436
s(I1
I0
tp59
I193
s(I14
I2
tp60
I12
s(I5
I3
tp61
I269
s(I0
I1
tp62
I407
s(I13
I1
tp63
I15
s(I8
I3
tp64
I198
s(I7
I0
tp65
I90
s(I15
I2
tp66
I0
s(I12
I0
tp67
I92
s(I9
I2
tp68
I390
s(I3
I4
tp69
I16
s(I6
I1
tp70
I25
s(I3
I1
tp71
I75
s(I11
I3
tp72
I6
s(I8
I2
tp73
I349
s(I1
I1
tp74
I320
s(I7
I4
tp75
I33
s(I2
I0
tp76
I266
s(I12
I4
tp77
I100
s(I4
I3
tp78
I820
s(I14
I3
tp79
I11
s(I8
I4
tp80
I306
s(I5
I2
tp81
I1018
s(I2
I4
tp82
I21
s(I13
I0
tp83
I34
s(I10
I2
tp84
I13
ssS'query_count'
p85
(dp86
(I7
I3
tp87
I3
s(I1
I3
tp88
I11
s(I12
I1
tp89
I6
s(I9
I1
tp90
I18
s(I3
I0
tp91
I8
s(I14
I4
tp92
I5
s(I11
I2
tp93
I1
s(I8
I0
tp94
I16
s(I3
I2
tp95
I25
s(I2
I1
tp96
I76
s(I15
I1
tp97
I0
s(I6
I2
tp98
I16
s(I14
I0
tp99
I2
s(I9
I4
tp100
I22
s(I4
I2
tp101
I5
s(I5
I1
tp102
I17
s(I0
I3
tp103
I10
s(I10
I3
tp104
I5
s(I7
I2
tp105
I4
s(I4
I0
tp106
I15
s(I1
I2
tp107
I9
s(I12
I2
tp108
I4
s(I9
I0
tp109
I11
s(I3
I3
tp110
I8
s(I0
I2
tp111
I7
s(I13
I3
tp112
I23
s(I8
I1
tp113
I5
s(I4
I4
tp114
I95
s(I15
I0
tp115
I0
s(I6
I3
tp116
I5
s(I11
I4
tp117
I5
s(I14
I1
tp118
I1
s(I11
I1
tp119
I3
s(I5
I0
tp120
I10
s(I2
I2
tp121
I10
s(I15
I4
tp122
I0
s(I10
I0
tp123
I8
s(I4
I1
tp124
I36
s(I13
I4
tp125
I0
s(I12
I3
tp126
I33
s(I6
I4
tp127
I22
s(I5
I4
tp128
I13
s(I0
I0
tp129
I31
s(I13
I2
tp130
I3
s(I10
I4
tp131
I0
s(I7
I1
tp132
I2
s(I15
I3
tp133
I0
s(I9
I3
tp134
I17
s(I6
I0
tp135
I12
s(I1
I4
tp136
I25
s(I11
I0
tp137
I2
s(I2
I3
tp138
I13
s(I10
I1
tp139
I1
s(I0
I4
tp140
I144
s(I1
I0
tp141
I21
s(I14
I2
tp142
I2
s(I5
I3
tp143
I17
s(I0
I1
tp144
I115
s(I13
I1
tp145
I3
s(I8
I3
tp146
I7
s(I7
I0
tp147
I3
s(I15
I2
tp148
I0
s(I12
I0
tp149
I10
s(I9
I2
tp150
I4
s(I3
I4
tp151
I4
s(I6
I1
tp152
I18
s(I3
I1
tp153
I21
s(I11
I3
tp154
I3
s(I8
I2
tp155
I8
s(I1
I1
tp156
I114
s(I7
I4
tp157
I3
s(I2
I0
tp158
I14
s(I12
I4
tp159
I21
s(I4
I3
tp160
I14
s(I14
I3
tp161
I5
s(I8
I4
tp162
I85
s(I5
I2
tp163
I6
s(I2
I4
tp164
I8
s(I13
I0
tp165
I5
s(I10
I2
tp166
I8
sssI1
(dp167
g3
(dp168
g5
I24
sg6
I1604
sg7
I18
sg8
I22
sg9
I72
sg10
I14
sg11
I2
sg12
I228
sg13
I89
sg14
I326
sg15
I0
sg16
I101
sg17
I6
sg18
I32
sg19
I2154
sg20
I32
sg21
I3264
sg22
I27
sg23
I106
sg24
I230
sg25
I585
sg26
I42
sg27
I92
sg28
I111
sg29
I2405
sg30
I46
sg31
I28
sg32
I324
sg33
I0
sg34
I755
sg35
I5
sg36
I10
sg37
I3
sg38
I2435
sg39
I232
sg40
I0
sg41
I1101
sg42
I55
sg43
I4
sg44
I112
sg45
I23
sg46
I19
sg47
I345
sg48
I33
sg49
I1
sg50
I29
sg51
I0
sg52
I78
sg53
I161
sg54
I36
sg55
I3
sg56
I53
sg57
I1
sg58
I433
sg59
I173
sg60
I12
sg61
I268
sg62
I403
sg63
I15
sg64
I198
sg65
I90
sg66
I0
sg67
I92
sg68
I390
sg69
I16
sg70
I25
sg71
I75
sg72
I6
sg73
I349
sg74
I296
sg75
I33
sg76
I266
sg77
I100
sg78
I820
sg79
I11
sg80
I306
sg81
I1018
sg82
I21
sg83
I34
sg84
I13
ssg85
(dp169
g87
I3
sg88
I11
sg89
I6
sg90
I18
sg91
I8
sg92
I5
sg93
I1
sg94
I16
sg95
I22
sg96
I76
sg97
I0
sg98
I16
sg99
I2
sg100
I22
sg101
I5
sg102
I17
sg103
I10
sg104
I5
sg105
I4
sg106
I15
sg107
I9
sg108
I4
sg109
I10
sg110
I8
sg111
I7
sg112
I23
sg113
I5
sg114
I95
sg115
I0
sg116
I5
sg117
I5
sg118
I1
sg119
I3
sg120
I10
sg121
I10
sg122
I0
sg123
I8
sg124
I33
sg125
I0
sg126
I33
sg127
I22
sg128
I13
sg129
I29
sg130
I3
sg131
I0
sg132
I2
sg133
I0
sg134
I17
sg135
I12
sg136
I22
sg137
I2
sg138
I13
sg139
I1
sg140
I144
sg141
I21
sg142
I2
sg143
I17
sg144
I115
sg145
I3
sg146
I7
sg147
I3
sg148
I0
sg149
I10
sg150
I4
sg151
I4
sg152
I18
sg153
I21
sg154
I3
sg155
I8
sg156
I114
sg157
I3
sg158
I14
sg159
I21
sg160
I14
sg161
I5
sg162
I85
sg163
I6
sg164
I8
sg165
I5
sg166
I8
sssI2
(dp170
g3
(dp171
g5
I24
sg6
I1604
sg7
I18
sg8
I22
sg9
I72
sg10
I14
sg11
I2
sg12
I228
sg13
I89
sg14
I326
sg15
I0
sg16
I101
sg17
I6
sg18
I32
sg19
I2154
sg20
I32
sg21
I3265
sg22
I27
sg23
I106
sg24
I230
sg25
I585
sg26
I42
sg27
I92
sg28
I111
sg29
I2406
sg30
I46
sg31
I28
sg32
I324
sg33
I0
sg34
I755
sg35
I5
sg36
I10
sg37
I3
sg38
I2435
sg39
I232
sg40
I0
sg41
I1101
sg42
I56
sg43
I4
sg44
I112
sg45
I23
sg46
I19
sg47
I345
sg48
I33
sg49
I1
sg50
I29
sg51
I0
sg52
I78
sg53
I161
sg54
I36
sg55
I3
sg56
I53
sg57
I1
sg58
I433
sg59
I174
sg60
I12
sg61
I268
sg62
I404
sg63
I15
sg64
I198
sg65
I90
sg66
I0
sg67
I92
sg68
I390
sg69
I16
sg70
I25
sg71
I75
sg72
I6
sg73
I349
sg74
I296
sg75
I33
sg76
I266
sg77
I100
sg78
I820
sg79
I11
sg80
I306
sg81
I1018
sg82
I21
sg83
I34
sg84
I13
ssg85
(dp172
g87
I3
sg88
I11
sg89
I6
sg90
I18
sg91
I8
sg92
I5
sg93
I1
sg94
I16
sg95
I22
sg96
I76
sg97
I0
sg98
I16
sg99
I2
sg100
I22
sg101
I5
sg102
I17
sg103
I10
sg104
I5
sg105
I4
sg106
I15
sg107
I9
sg108
I4
sg109
I10
sg110
I8
sg111
I7
sg112
I23
sg113
I5
sg114
I95
sg115
I0
sg116
I5
sg117
I5
sg118
I1
sg119
I3
sg120
I10
sg121
I10
sg122
I0
sg123
I8
sg124
I33
sg125
I0
sg126
I33
sg127
I22
sg128
I13
sg129
I29
sg130
I3
sg131
I0
sg132
I2
sg133
I0
sg134
I17
sg135
I12
sg136
I22
sg137
I2
sg138
I13
sg139
I1
sg140
I144
sg141
I21
sg142
I2
sg143
I17
sg144
I115
sg145
I3
sg146
I7
sg147
I3
sg148
I0
sg149
I10
sg150
I4
sg151
I4
sg152
I18
sg153
I21
sg154
I3
sg155
I8
sg156
I114
sg157
I3
sg158
I14
sg159
I21
sg160
I14
sg161
I5
sg162
I85
sg163
I6
sg164
I8
sg165
I5
sg166
I8
sssI4
(dp173
g3
(dp174
g5
I24
sg6
I1604
sg7
I18
sg8
I22
sg9
I72
sg10
I14
sg11
I2
sg12
I228
sg13
I89
sg14
I326
sg15
I0
sg16
I101
sg17
I6
sg18
I32
sg19
I2154
sg20
I32
sg21
I3265
sg22
I27
sg23
I106
sg24
I230
sg25
I585
sg26
I42
sg27
I92
sg28
I111
sg29
I2407
sg30
I46
sg31
I28
sg32
I324
sg33
I0
sg34
I755
sg35
I5
sg36
I10
sg37
I3
sg38
I2435
sg39
I232
sg40
I0
sg41
I1101
sg42
I56
sg43
I4
sg44
I112
sg45
I23
sg46
I19
sg47
I346
sg48
I33
sg49
I1
sg50
I29
sg51
I0
sg52
I78
sg53
I161
sg54
I36
sg55
I3
sg56
I53
sg57
I1
sg58
I433
sg59
I175
sg60
I12
sg61
I268
sg62
I404
sg63
I15
sg64
I198
sg65
I90
sg66
I0
sg67
I92
sg68
I390
sg69
I16
sg70
I25
sg71
I75
sg72
I6
sg73
I349
sg74
I296
sg75
I33
sg76
I266
sg77
I100
sg78
I820
sg79
I11
sg80
I306
sg81
I1018
sg82
I21
sg83
I34
sg84
I13
ssg85
(dp175
g87
I3
sg88
I11
sg89
I6
sg90
I18
sg91
I8
sg92
I5
sg93
I1
sg94
I16
sg95
I22
sg96
I76
sg97
I0
sg98
I16
sg99
I2
sg100
I22
sg101
I5
sg102
I17
sg103
I10
sg104
I5
sg105
I4
sg106
I15
sg107
I9
sg108
I4
sg109
I10
sg110
I8
sg111
I7
sg112
I23
sg113
I5
sg114
I95
sg115
I0
sg116
I5
sg117
I5
sg118
I1
sg119
I3
sg120
I10
sg121
I10
sg122
I0
sg123
I8
sg124
I33
sg125
I0
sg126
I33
sg127
I22
sg128
I13
sg129
I29
sg130
I3
sg131
I0
sg132
I2
sg133
I0
sg134
I17
sg135
I12
sg136
I22
sg137
I2
sg138
I13
sg139
I1
sg140
I144
sg141
I21
sg142
I2
sg143
I17
sg144
I115
sg145
I3
sg146
I7
sg147
I3
sg148
I0
sg149
I10
sg150
I4
sg151
I4
sg152
I18
sg153
I21
sg154
I3
sg155
I8
sg156
I114
sg157
I3
sg158
I14
sg159
I21
sg160
I14
sg161
I5
sg162
I85
sg163
I6
sg164
I8
sg165
I5
sg166
I8
sssI8
(dp176
g3
(dp177
g5
I24
sg6
I1604
sg7
I18
sg8
I22
sg9
I72
sg10
I14
sg11
I2
sg12
I228
sg13
I89
sg14
I326
sg15
I0
sg16
I101
sg17
I6
sg18
I32
sg19
I2155
sg20
I32
sg21
I3266
sg22
I27
sg23
I106
sg24
I230
sg25
I586
sg26
I42
sg27
I93
sg28
I111
sg29
I2410
sg30
I46
sg31
I28
sg32
I324
sg33
I0
sg34
I755
sg35
I5
sg36
I10
sg37
I3
sg38
I2435
sg39
I232
sg40
I0
sg41
I1101
sg42
I56
sg43
I4
sg44
I112
sg45
I23
sg46
I19
sg47
I347
sg48
I33
sg49
I1
sg50
I29
sg51
I0
sg52
I78
sg53
I161
sg54
I37
sg55
I3
sg56
I53
sg57
I1
sg58
I436
sg59
I175
sg60
I12
sg61
I269
sg62
I407
sg63
I15
sg64
I198
sg65
I90
sg66
I0
sg67
I92
sg68
I390
sg69
I16
sg70
I25
sg71
I75
sg72
I6
sg73
I349
sg74
I297
sg75
I33
sg76
I266
sg77
I100
sg78
I820
sg79
I11
sg80
I306
sg81
I1018
sg82
I21
sg83
I34
sg84
I13
ssg85
(dp178
g87
I3
sg88
I11
sg89
I6
sg90
I18
sg91
I8
sg92
I5
sg93
I1
sg94
I16
sg95
I22
sg96
I76
sg97
I0
sg98
I16
sg99
I2
sg100
I22
sg101
I5
sg102
I17
sg103
I10
sg104
I5
sg105
I4
sg106
I15
sg107
I9
sg108
I4
sg109
I11
sg110
I8
sg111
I7
sg112
I23
sg113
I5
sg114
I95
sg115
I0
sg116
I5
sg117
I5
sg118
I1
sg119
I3
sg120
I10
sg121
I10
sg122
I0
sg123
I8
sg124
I33
sg125
I0
sg126
I33
sg127
I22
sg128
I13
sg129
I30
sg130
I3
sg131
I0
sg132
I2
sg133
I0
sg134
I17
sg135
I12
sg136
I22
sg137
I2
sg138
I13
sg139
I1
sg140
I144
sg141
I21
sg142
I2
sg143
I17
sg144
I115
sg145
I3
sg146
I7
sg147
I3
sg148
I0
sg149
I10
sg150
I4
sg151
I4
sg152
I18
sg153
I21
sg154
I3
sg155
I8
sg156
I114
sg157
I3
sg158
I14
sg159
I21
sg160
I14
sg161
I5
sg162
I85
sg163
I6
sg164
I8
sg165
I5
sg166
I8
sssI64
(dp179
g3
(dp180
g5
I24
sg6
I1609
sg7
I18
sg8
I22
sg9
I72
sg10
I14
sg11
I2
sg12
I229
sg13
I92
sg14
I326
sg15
I0
sg16
I101
sg17
I6
sg18
I32
sg19
I2155
sg20
I32
sg21
I3270
sg22
I27
sg23
I106
sg24
I230
sg25
I590
sg26
I42
sg27
I93
sg28
I111
sg29
I2464
sg30
I46
sg31
I28
sg32
I324
sg33
I0
sg34
I755
sg35
I5
sg36
I10
sg37
I3
sg38
I2435
sg39
I233
sg40
I0
sg41
I1101
sg42
I59
sg43
I4
sg44
I112
sg45
I23
sg46
I19
sg47
I349
sg48
I33
sg49
I1
sg50
I29
sg51
I0
sg52
I78
sg53
I168
sg54
I40
sg55
I3
sg56
I55
sg57
I1
sg58
I436
sg59
I217
sg60
I12
sg61
I269
sg62
I407
sg63
I15
sg64
I198
sg65
I90
sg66
I0
sg67
I92
sg68
I390
sg69
I16
sg70
I25
sg71
I75
sg72
I6
sg73
I349
sg74
I331
sg75
I33
sg76
I266
sg77
I100
sg78
I821
sg79
I11
sg80
I306
sg81
I1023
sg82
I21
sg83
I34
sg84
I13
ssg85
(dp181
g87
I3
sg88
I11
sg89
I6
sg90
I18
sg91
I8
sg92
I5
sg93
I1
sg94
I17
sg95
I25
sg96
I76
sg97
I0
sg98
I16
sg99
I2
sg100
I22
sg101
I5
sg102
I17
sg103
I10
sg104
I5
sg105
I4
sg106
I15
sg107
I9
sg108
I4
sg109
I11
sg110
I8
sg111
I7
sg112
I23
sg113
I5
sg114
I95
sg115
I0
sg116
I5
sg117
I5
sg118
I1
sg119
I3
sg120
I10
sg121
I10
sg122
I0
sg123
I8
sg124
I36
sg125
I0
sg126
I33
sg127
I22
sg128
I13
sg129
I31
sg130
I3
sg131
I0
sg132
I2
sg133
I0
sg134
I17
sg135
I13
sg136
I25
sg137
I2
sg138
I13
sg139
I1
sg140
I144
sg141
I21
sg142
I2
sg143
I17
sg144
I115
sg145
I3
sg146
I7
sg147
I3
sg148
I0
sg149
I10
sg150
I4
sg151
I4
sg152
I18
sg153
I21
sg154
I3
sg155
I8
sg156
I114
sg157
I3
sg158
I14
sg159
I21
sg160
I14
sg161
I5
sg162
I85
sg163
I6
sg164
I8
sg165
I5
sg166
I8
sssI128
(dp182
g3
(dp183
g5
I24
sg6
I1609
sg7
I18
sg8
I22
sg9
I72
sg10
I14
sg11
I2
sg12
I229
sg13
I92
sg14
I326
sg15
I0
sg16
I101
sg17
I6
sg18
I32
sg19
I2155
sg20
I32
sg21
I3270
sg22
I27
sg23
I106
sg24
I230
sg25
I654
sg26
I42
sg27
I93
sg28
I111
sg29
I2527
sg30
I46
sg31
I28
sg32
I324
sg33
I0
sg34
I755
sg35
I5
sg36
I10
sg37
I3
sg38
I2435
sg39
I233
sg40
I0
sg41
I1101
sg42
I59
sg43
I4
sg44
I112
sg45
I25
sg46
I19
sg47
I350
sg48
I33
sg49
I1
sg50
I29
sg51
I0
sg52
I78
sg53
I229
sg54
I40
sg55
I3
sg56
I117
sg57
I1
sg58
I436
sg59
I218
sg60
I12
sg61
I269
sg62
I407
sg63
I15
sg64
I198
sg65
I90
sg66
I0
sg67
I92
sg68
I390
sg69
I16
sg70
I25
sg71
I75
sg72
I6
sg73
I349
sg74
I331
sg75
I33
sg76
I266
sg77
I100
sg78
I821
sg79
I11
sg80
I306
sg81
I1024
sg82
I23
sg83
I34
sg84
I13
ssg85
(dp184
g87
I3
sg88
I11
sg89
I6
sg90
I18
sg91
I8
sg92
I5
sg93
I1
sg94
I17
sg95
I25
sg96
I76
sg97
I0
sg98
I16
sg99
I2
sg100
I22
sg101
I5
sg102
I17
sg103
I10
sg104
I5
sg105
I4
sg106
I15
sg107
I9
sg108
I4
sg109
I11
sg110
I8
sg111
I7
sg112
I23
sg113
I5
sg114
I95
sg115
I0
sg116
I5
sg117
I5
sg118
I1
sg119
I3
sg120
I10
sg121
I10
sg122
I0
sg123
I8
sg124
I36
sg125
I0
sg126
I33
sg127
I24
sg128
I13
sg129
I32
sg130
I3
sg131
I0
sg132
I2
sg133
I0
sg134
I17
sg135
I13
sg136
I25
sg137
I2
sg138
I13
sg139
I1
sg140
I144
sg141
I21
sg142
I2
sg143
I17
sg144
I115
sg145
I3
sg146
I7
sg147
I3
sg148
I0
sg149
I10
sg150
I4
sg151
I4
sg152
I18
sg153
I21
sg154
I3
sg155
I8
sg156
I114
sg157
I3
sg158
I14
sg159
I21
sg160
I14
sg161
I5
sg162
I85
sg163
I6
sg164
I10
sg165
I5
sg166
I8
sssI16
(dp185
g3
(dp186
g5
I24
sg6
I1604
sg7
I18
sg8
I22
sg9
I72
sg10
I14
sg11
I2
sg12
I228
sg13
I89
sg14
I326
sg15
I0
sg16
I101
sg17
I6
sg18
I32
sg19
I2155
sg20
I32
sg21
I3266
sg22
I27
sg23
I106
sg24
I230
sg25
I586
sg26
I42
sg27
I93
sg28
I111
sg29
I2419
sg30
I46
sg31
I28
sg32
I324
sg33
I0
sg34
I755
sg35
I5
sg36
I10
sg37
I3
sg38
I2435
sg39
I232
sg40
I0
sg41
I1101
sg42
I56
sg43
I4
sg44
I112
sg45
I23
sg46
I19
sg47
I348
sg48
I33
sg49
I1
sg50
I29
sg51
I0
sg52
I78
sg53
I161
sg54
I40
sg55
I3
sg56
I53
sg57
I1
sg58
I436
sg59
I181
sg60
I12
sg61
I269
sg62
I407
sg63
I15
sg64
I198
sg65
I90
sg66
I0
sg67
I92
sg68
I390
sg69
I16
sg70
I25
sg71
I75
sg72
I6
sg73
I349
sg74
I310
sg75
I33
sg76
I266
sg77
I100
sg78
I820
sg79
I11
sg80
I306
sg81
I1018
sg82
I21
sg83
I34
sg84
I13
ssg85
(dp187
g87
I3
sg88
I11
sg89
I6
sg90
I18
sg91
I8
sg92
I5
sg93
I1
sg94
I16
sg95
I22
sg96
I76
sg97
I0
sg98
I16
sg99
I2
sg100
I22
sg101
I5
sg102
I17
sg103
I10
sg104
I5
sg105
I4
sg106
I15
sg107
I9
sg108
I4
sg109
I11
sg110
I8
sg111
I7
sg112
I23
sg113
I5
sg114
I95
sg115
I0
sg116
I5
sg117
I5
sg118
I1
sg119
I3
sg120
I10
sg121
I10
sg122
I0
sg123
I8
sg124
I33
sg125
I0
sg126
I33
sg127
I22
sg128
I13
sg129
I30
sg130
I3
sg131
I0
sg132
I2
sg133
I0
sg134
I17
sg135
I12
sg136
I25
sg137
I2
sg138
I13
sg139
I1
sg140
I144
sg141
I21
sg142
I2
sg143
I17
sg144
I115
sg145
I3
sg146
I7
sg147
I3
sg148
I0
sg149
I10
sg150
I4
sg151
I4
sg152
I18
sg153
I21
sg154
I3
sg155
I8
sg156
I114
sg157
I3
sg158
I14
sg159
I21
sg160
I14
sg161
I5
sg162
I85
sg163
I6
sg164
I8
sg165
I5
sg166
I8
sss.