(dp1
I32
(dp2
S'visit_count'
p3
(dp4
(I0
I1
tp5
I16
s(I9
I0
tp6
I2
s(I0
I0
tp7
I16
s(I7
I0
tp8
I26
s(I9
I1
tp9
I4
s(I7
I1
tp10
I6
s(I8
I1
tp11
I16
s(I6
I1
tp12
I21
s(I3
I1
tp13
I16
s(I6
I0
tp14
I11
s(I2
I1
tp15
I22
s(I3
I0
tp16
I16
s(I5
I0
tp17
I13
s(I5
I1
tp18
I19
s(I8
I0
tp19
I10
s(I2
I0
tp20
I10
s(I1
I0
tp21
I16
s(I4
I1
tp22
I20
s(I1
I1
tp23
I16
s(I4
I0
tp24
I12
ssS'query_count'
p25
(dp26
I0
I1
sI1
I1
sI2
I1
sI3
I1
sI4
I1
sI5
I1
sI6
I1
sI7
I1
sI8
I1
sI9
I0
sssI1
(dp27
g3
(dp28
g5
I1
sg6
I1
sg7
I0
sg8
I0
sg9
I0
sg10
I1
sg11
I0
sg12
I1
sg13
I1
sg14
I0
sg15
I1
sg16
I0
sg17
I1
sg18
I0
sg19
I0
sg20
I0
sg21
I1
sg22
I1
sg23
I0
sg24
I0
ssg25
(dp29
I0
I0
sI1
I0
sI2
I0
sI3
I0
sI4
I0
sI5
I0
sI6
I0
sI7
I0
sI8
I0
sI9
I0
sssI2
(dp30
g3
(dp31
g5
I1
sg6
I1
sg7
I1
sg8
I0
sg9
I1
sg10
I2
sg11
I0
sg12
I2
sg13
I2
sg14
I0
sg15
I2
sg16
I0
sg17
I2
sg18
I0
sg19
I0
sg20
I0
sg21
I2
sg22
I1
sg23
I0
sg24
I1
ssg25
(dp32
I0
I0
sI1
I0
sI2
I0
sI3
I0
sI4
I0
sI5
I0
sI6
I0
sI7
I0
sI8
I0
sI9
I0
sssI4
(dp33
g3
(dp34
g5
I2
sg6
I1
sg7
I2
sg8
I2
sg9
I1
sg10
I2
sg11
I1
sg12
I3
sg13
I3
sg14
I1
sg15
I4
sg16
I1
sg17
I3
sg18
I1
sg19
I1
sg20
I0
sg21
I3
sg22
I3
sg23
I1
sg24
I1
ssg25
(dp35
I0
I0
sI1
I0
sI2
I0
sI3
I0
sI4
I0
sI5
I0
sI6
I0
sI7
I0
sI8
I0
sI9
I0
sssI1024
(dp36
g3
(dp37
g5
I486
sg6
I503
sg7
I538
sg8
I34
sg9
I487
sg10
I990
sg11
I21
sg12
I516
sg13
I514
sg14
I508
sg15
I483
sg16
I510
sg17
I522
sg18
I502
sg19
I13
sg20
I541
sg21
I523
sg22
I523
sg23
I501
sg24
I501
ssg25
(dp38
I0
I3
sI1
I3
sI2
I3
sI3
I3
sI4
I3
sI5
I3
sI6
I3
sI7
I3
sI8
I2
sI9
I1
sssI8
(dp39
g3
(dp40
g5
I5
sg6
I1
sg7
I3
sg8
I3
sg9
I4
sg10
I5
sg11
I2
sg12
I6
sg13
I6
sg14
I2
sg15
I4
sg16
I2
sg17
I3
sg18
I5
sg19
I1
sg20
I4
sg21
I5
sg22
I6
sg23
I3
sg24
I2
ssg25
(dp41
I0
I0
sI1
I0
sI2
I0
sI3
I0
sI4
I0
sI5
I0
sI6
I0
sI7
I0
sI8
I0
sI9
I0
sssI64
(dp42
g3
(dp43
g5
I32
sg6
I17
sg7
I32
sg8
I34
sg9
I13
sg10
I30
sg11
I21
sg12
I35
sg13
I34
sg14
I29
sg15
I37
sg16
I30
sg17
I32
sg18
I32
sg19
I13
sg20
I27
sg21
I29
sg22
I35
sg23
I35
sg24
I29
ssg25
(dp44
I0
I3
sI1
I3
sI2
I3
sI3
I3
sI4
I3
sI5
I3
sI6
I3
sI7
I3
sI8
I2
sI9
I1
sssI128
(dp45
g3
(dp46
g5
I70
sg6
I54
sg7
I58
sg8
I34
sg9
I40
sg10
I94
sg11
I21
sg12
I67
sg13
I67
sg14
I61
sg15
I69
sg16
I61
sg17
I61
sg18
I67
sg19
I13
sg20
I59
sg21
I57
sg22
I73
sg23
I71
sg24
I55
ssg25
(dp47
I0
I3
sI1
I3
sI2
I3
sI3
I3
sI4
I3
sI5
I3
sI6
I3
sI7
I3
sI8
I2
sI9
I1
sssI256
(dp48
g3
(dp49
g5
I138
sg6
I126
sg7
I118
sg8
I34
sg9
I96
sg10
I222
sg11
I21
sg12
I128
sg13
I127
sg14
I128
sg15
I121
sg16
I129
sg17
I121
sg18
I135
sg19
I13
sg20
I135
sg21
I126
sg22
I133
sg23
I130
sg24
I123
ssg25
(dp50
I0
I3
sI1
I3
sI2
I3
sI3
I3
sI4
I3
sI5
I3
sI6
I3
sI7
I3
sI8
I2
sI9
I1
sssI16
(dp51
g3
(dp52
g5
I8
sg6
I2
sg7
I8
sg8
I10
sg9
I4
sg10
I6
sg11
I7
sg12
I13
sg13
I9
sg14
I3
sg15
I8
sg16
I7
sg17
I6
sg18
I10
sg19
I3
sg20
I8
sg21
I8
sg22
I12
sg23
I8
sg24
I4
ssg25
(dp53
I0
I1
sI1
I1
sI2
I1
sI3
I1
sI4
I1
sI5
I1
sI6
I1
sI7
I1
sI8
I1
sI9
I0
sssI512
(dp54
g3
(dp55
g5
I255
sg6
I266
sg7
I257
sg8
I34
sg9
I212
sg10
I478
sg11
I21
sg12
I258
sg13
I239
sg14
I254
sg15
I247
sg16
I273
sg17
I251
sg18
I261
sg19
I13
sg20
I265
sg21
I264
sg22
I266
sg23
I248
sg24
I246
ssg25
(dp56
I0
I3
sI1
I3
sI2
I3
sI3
I3
sI4
I3
sI5
I3
sI6
I3
sI7
I3
sI8
I2
sI9
I1
sss.