(dp1
I32
(dp2
S'visit_count'
p3
(dp4
(I0
I1
tp5
I53
s(I9
I0
tp6
I0
s(I0
I0
tp7
I76
s(I7
I0
tp8
I2
s(I9
I1
tp9
I0
s(I7
I1
tp10
I0
s(I8
I1
tp11
I0
s(I6
I1
tp12
I5
s(I3
I1
tp13
I18
s(I6
I0
tp14
I3
s(I2
I1
tp15
I26
s(I3
I0
tp16
I9
s(I5
I0
tp17
I8
s(I5
I1
tp18
I7
s(I8
I0
tp19
I0
s(I2
I0
tp20
I22
s(I1
I0
tp21
I28
s(I4
I1
tp22
I14
s(I1
I1
tp23
I43
s(I4
I0
tp24
I6
ssS'query_count'
p25
(dp26
(I0
I1
tp27
I0
s(I9
I0
tp28
I0
s(I0
I0
tp29
I0
s(I7
I0
tp30
I1
s(I9
I1
tp31
I0
s(I7
I1
tp32
I0
s(I8
I1
tp33
I0
s(I6
I1
tp34
I1
s(I3
I1
tp35
I1
s(I6
I0
tp36
I1
s(I2
I1
tp37
I1
s(I3
I0
tp38
I0
s(I5
I0
tp39
I1
s(I5
I1
tp40
I1
s(I8
I0
tp41
I0
s(I2
I0
tp42
I0
s(I1
I0
tp43
I0
s(I4
I1
tp44
I1
s(I1
I1
tp45
I1
s(I4
I0
tp46
I0
sssI1
(dp47
g3
(dp48
g5
I1
sg6
I0
sg7
I9
sg8
I0
sg9
I0
sg10
I0
sg11
I0
sg12
I0
sg13
I0
sg14
I0
sg15
I0
sg16
I0
sg17
I0
sg18
I0
sg19
I0
sg20
I0
sg21
I0
sg22
I0
sg23
I0
sg24
I0
ssg25
(dp49
g27
I0
sg28
I0
sg29
I0
sg30
I0
sg31
I0
sg32
I0
sg33
I0
sg34
I0
sg35
I0
sg36
I0
sg37
I0
sg38
I0
sg39
I0
sg40
I0
sg41
I0
sg42
I0
sg43
I0
sg44
I0
sg45
I0
sg46
I0
sssI2
(dp50
g3
(dp51
g5
I2
sg6
I0
sg7
I9
sg8
I0
sg9
I0
sg10
I0
sg11
I0
sg12
I0
sg13
I1
sg14
I2
sg15
I1
sg16
I0
sg17
I0
sg18
I3
sg19
I0
sg20
I0
sg21
I0
sg22
I1
sg23
I1
sg24
I0
ssg25
(dp52
g27
I0
sg28
I0
sg29
I0
sg30
I0
sg31
I0
sg32
I0
sg33
I0
sg34
I0
sg35
I1
sg36
I1
sg37
I1
sg38
I0
sg39
I0
sg40
I1
sg41
I0
sg42
I0
sg43
I0
sg44
I1
sg45
I1
sg46
I0
sssI4
(dp53
g3
(dp54
g5
I5
sg6
I0
sg7
I9
sg8
I0
sg9
I0
sg10
I0
sg11
I0
sg12
I0
sg13
I3
sg14
I2
sg15
I3
sg16
I1
sg17
I3
sg18
I3
sg19
I0
sg20
I1
sg21
I1
sg22
I4
sg23
I4
sg24
I1
ssg25
(dp55
g27
I0
sg28
I0
sg29
I0
sg30
I0
sg31
I0
sg32
I0
sg33
I0
sg34
I0
sg35
I1
sg36
I1
sg37
I1
sg38
I0
sg39
I1
sg40
I1
sg41
I0
sg42
I0
sg43
I0
sg44
I1
sg45
I1
sg46
I0
sssI8
(dp56
g3
(dp57
g5
I13
sg6
I0
sg7
I16
sg8
I1
sg9
I0
sg10
I0
sg11
I0
sg12
I2
sg13
I5
sg14
I3
sg15
I5
sg16
I1
sg17
I4
sg18
I5
sg19
I0
sg20
I3
sg21
I6
sg22
I6
sg23
I9
sg24
I1
ssg25
(dp58
g27
I0
sg28
I0
sg29
I0
sg30
I1
sg31
I0
sg32
I0
sg33
I0
sg34
I1
sg35
I1
sg36
I1
sg37
I1
sg38
I0
sg39
I1
sg40
I1
sg41
I0
sg42
I0
sg43
I0
sg44
I1
sg45
I1
sg46
I0
sssI64
(dp59
g3
(dp60
g5
I118
sg6
I0
sg7
I131
sg8
I3
sg9
I0
sg10
I0
sg11
I0
sg12
I6
sg13
I30
sg14
I4
sg15
I54
sg16
I30
sg17
I11
sg18
I9
sg19
I0
sg20
I53
sg21
I68
sg22
I19
sg23
I90
sg24
I14
ssg25
(dp61
g27
I0
sg28
I0
sg29
I0
sg30
I1
sg31
I0
sg32
I0
sg33
I0
sg34
I1
sg35
I1
sg36
I1
sg37
I1
sg38
I0
sg39
I1
sg40
I1
sg41
I0
sg42
I0
sg43
I0
sg44
I1
sg45
I1
sg46
I0
sssI128
(dp62
g3
(dp63
g5
I250
sg6
I0
sg7
I253
sg8
I3
sg9
I1
sg10
I4
sg11
I1
sg12
I10
sg13
I58
sg14
I4
sg15
I108
sg16
I66
sg17
I13
sg18
I13
sg19
I1
sg20
I110
sg21
I149
sg22
I27
sg23
I181
sg24
I28
ssg25
(dp64
g27
I0
sg28
I0
sg29
I0
sg30
I1
sg31
I0
sg32
I1
sg33
I0
sg34
I1
sg35
I1
sg36
I1
sg37
I1
sg38
I0
sg39
I1
sg40
I1
sg41
I1
sg42
I0
sg43
I0
sg44
I1
sg45
I1
sg46
I0
sssI16
(dp65
g3
(dp66
g5
I24
sg6
I0
sg7
I31
sg8
I2
sg9
I0
sg10
I0
sg11
I0
sg12
I4
sg13
I11
sg14
I3
sg15
I12
sg16
I4
sg17
I5
sg18
I6
sg19
I0
sg20
I12
sg21
I10
sg22
I9
sg23
I23
sg24
I4
ssg25
(dp67
g27
I0
sg28
I0
sg29
I0
sg30
I1
sg31
I0
sg32
I0
sg33
I0
sg34
I1
sg35
I1
sg36
I1
sg37
I1
sg38
I0
sg39
I1
sg40
I1
sg41
I0
sg42
I0
sg43
I0
sg44
I1
sg45
I1
sg46
I0
sss.