(dp1
I32
(dp2
S'visit_count'
p3
(dp4
(I7
I3
tp5
I1
s(I1
I3
tp6
I8
s(I12
I1
tp7
I0
s(I9
I1
tp8
I0
s(I3
I0
tp9
I2
s(I14
I4
tp10
I1
s(I11
I2
tp11
I0
s(I8
I0
tp12
I0
s(I3
I2
tp13
I1
s(I2
I1
tp14
I4
s(I15
I1
tp15
I0
s(I6
I2
tp16
I1
s(I14
I0
tp17
I0
s(I9
I4
tp18
I0
s(I4
I2
tp19
I10
s(I5
I1
tp20
I0
s(I0
I3
tp21
I14
s(I10
I3
tp22
I2
s(I7
I2
tp23
I2
s(I4
I0
tp24
I2
s(I1
I2
tp25
I9
s(I12
I2
tp26
I0
s(I9
I0
tp27
I3
s(I3
I3
tp28
I2
s(I0
I2
tp29
I18
s(I13
I3
tp30
I0
s(I8
I1
tp31
I0
s(I4
I4
tp32
I4
s(I15
I0
tp33
I1
s(I6
I3
tp34
I4
s(I11
I4
tp35
I0
s(I14
I1
tp36
I0
s(I11
I1
tp37
I0
s(I5
I0
tp38
I0
s(I2
I2
tp39
I4
s(I15
I4
tp40
I0
s(I10
I0
tp41
I11
s(I4
I1
tp42
I0
s(I13
I4
tp43
I0
s(I12
I3
tp44
I0
s(I6
I4
tp45
I0
s(I5
I4
tp46
I0
s(I0
I0
tp47
I0
s(I13
I2
tp48
I0
s(I10
I4
tp49
I0
s(I7
I1
tp50
I0
s(I15
I3
tp51
I0
s(I9
I3
tp52
I3
s(I6
I0
tp53
I0
s(I1
I4
tp54
I0
s(I11
I0
tp55
I1
s(I2
I3
tp56
I4
s(I10
I1
tp57
I0
s(I0
I4
tp58
I0
s(I1
I0
tp59
I1
s(I14
I2
tp60
I1
s(I5
I3
tp61
I16
s(I0
I1
tp62
I0
s(I13
I1
tp63
I0
s(I8
I3
tp64
I1
s(I7
I0
tp65
I2
s(I15
I2
tp66
I1
s(I12
I0
tp67
I1
s(I9
I2
tp68
I11
s(I3
I4
tp69
I0
s(I6
I1
tp70
I0
s(I3
I1
tp71
I1
s(I11
I3
tp72
I1
s(I8
I2
tp73
I1
s(I1
I1
tp74
I2
s(I7
I4
tp75
I0
s(I2
I0
tp76
I1
s(I12
I4
tp77
I1
s(I4
I3
tp78
I2
s(I14
I3
tp79
I1
s(I8
I4
tp80
I0
s(I5
I2
tp81
I2
s(I2
I4
tp82
I0
s(I13
I0
tp83
I3
s(I10
I2
tp84
I2
ssS'query_count'
p85
(dp86
I0
I32
sI1
I20
sI2
I13
sI3
I6
sI4
I18
sI5
I17
sI6
I5
sI7
I5
sI8
I2
sI9
I17
sI10
I15
sI11
I2
sI12
I2
sI13
I3
sI14
I3
sI15
I2
sssI1
(dp87
g3
(dp88
g5
I0
sg6
I0
sg7
I0
sg8
I0
sg9
I0
sg10
I0
sg11
I0
sg12
I0
sg13
I0
sg14
I0
sg15
I0
sg16
I0
sg17
I0
sg18
I0
sg19
I1
sg20
I0
sg21
I1
sg22
I0
sg23
I0
sg24
I0
sg25
I0
sg26
I0
sg27
I1
sg28
I0
sg29
I0
sg30
I0
sg31
I0
sg32
I0
sg33
I0
sg34
I0
sg35
I0
sg36
I0
sg37
I0
sg38
I0
sg39
I0
sg40
I0
sg41
I0
sg42
I0
sg43
I0
sg44
I0
sg45
I0
sg46
I0
sg47
I0
sg48
I0
sg49
I0
sg50
I0
sg51
I0
sg52
I0
sg53
I0
sg54
I0
sg55
I0
sg56
I0
sg57
I0
sg58
I0
sg59
I0
sg60
I0
sg61
I1
sg62
I0
sg63
I0
sg64
I0
sg65
I0
sg66
I0
sg67
I0
sg68
I0
sg69
I0
sg70
I0
sg71
I0
sg72
I0
sg73
I0
sg74
I0
sg75
I0
sg76
I0
sg77
I0
sg78
I0
sg79
I0
sg80
I0
sg81
I0
sg82
I0
sg83
I0
sg84
I0
ssg85
(dp89
I0
I1
sI1
I0
sI2
I0
sI3
I0
sI4
I1
sI5
I0
sI6
I0
sI7
I0
sI8
I0
sI9
I1
sI10
I0
sI11
I0
sI12
I0
sI13
I0
sI14
I0
sI15
I0
sssI2
(dp90
g3
(dp91
g5
I0
sg6
I0
sg7
I0
sg8
I0
sg9
I0
sg10
I0
sg11
I0
sg12
I0
sg13
I0
sg14
I0
sg15
I0
sg16
I0
sg17
I0
sg18
I0
sg19
I1
sg20
I0
sg21
I2
sg22
I0
sg23
I0
sg24
I1
sg25
I0
sg26
I0
sg27
I1
sg28
I0
sg29
I0
sg30
I0
sg31
I0
sg32
I1
sg33
I0
sg34
I0
sg35
I0
sg36
I0
sg37
I0
sg38
I0
sg39
I0
sg40
I0
sg41
I0
sg42
I0
sg43
I0
sg44
I0
sg45
I0
sg46
I0
sg47
I0
sg48
I0
sg49
I0
sg50
I0
sg51
I0
sg52
I0
sg53
I0
sg54
I0
sg55
I0
sg56
I0
sg57
I0
sg58
I0
sg59
I0
sg60
I0
sg61
I1
sg62
I0
sg63
I0
sg64
I0
sg65
I0
sg66
I0
sg67
I0
sg68
I0
sg69
I0
sg70
I0
sg71
I0
sg72
I0
sg73
I0
sg74
I0
sg75
I0
sg76
I0
sg77
I0
sg78
I0
sg79
I0
sg80
I0
sg81
I0
sg82
I0
sg83
I0
sg84
I0
ssg85
(dp92
I0
I2
sI1
I0
sI2
I0
sI3
I0
sI4
I3
sI5
I0
sI6
I0
sI7
I0
sI8
I0
sI9
I1
sI10
I0
sI11
I0
sI12
I0
sI13
I0
sI14
I0
sI15
I0
sssI4
(dp93
g3
(dp94
g5
I0
sg6
I0
sg7
I0
sg8
I0
sg9
I0
sg10
I0
sg11
I0
sg12
I0
sg13
I0
sg14
I0
sg15
I0
sg16
I0
sg17
I0
sg18
I0
sg19
I2
sg20
I0
sg21
I4
sg22
I0
sg23
I0
sg24
I1
sg25
I0
sg26
I0
sg27
I1
sg28
I0
sg29
I0
sg30
I0
sg31
I0
sg32
I1
sg33
I0
sg34
I0
sg35
I0
sg36
I0
sg37
I0
sg38
I0
sg39
I0
sg40
I0
sg41
I0
sg42
I0
sg43
I0
sg44
I0
sg45
I0
sg46
I0
sg47
I0
sg48
I0
sg49
I0
sg50
I0
sg51
I0
sg52
I1
sg53
I0
sg54
I0
sg55
I1
sg56
I0
sg57
I0
sg58
I0
sg59
I0
sg60
I0
sg61
I2
sg62
I0
sg63
I0
sg64
I0
sg65
I0
sg66
I0
sg67
I0
sg68
I1
sg69
I0
sg70
I0
sg71
I0
sg72
I0
sg73
I1
sg74
I0
sg75
I0
sg76
I0
sg77
I0
sg78
I1
sg79
I0
sg80
I0
sg81
I0
sg82
I0
sg83
I1
sg84
I1
ssg85
(dp95
I0
I4
sI1
I0
sI2
I0
sI3
I0
sI4
I5
sI5
I1
sI6
I0
sI7
I0
sI8
I1
sI9
I3
sI10
I1
sI11
I1
sI12
I0
sI13
I1
sI14
I0
sI15
I0
sssI1024
(dp96
g3
(dp97
g5
I1
sg6
I497
sg7
I0
sg8
I0
sg9
I4
sg10
I1
sg11
I0
sg12
I1
sg13
I1
sg14
I5
sg15
I13
sg16
I2
sg17
I0
sg18
I0
sg19
I497
sg20
I0
sg21
I507
sg22
I16
sg23
I4
sg24
I2
sg25
I19
sg26
I0
sg27
I3
sg28
I2
sg29
I517
sg30
I1
sg31
I0
sg32
I4
sg33
I10
sg34
I334
sg35
I0
sg36
I0
sg37
I0
sg38
I2
sg39
I6
sg40
I8
sg41
I945
sg42
I0
sg43
I0
sg44
I0
sg45
I0
sg46
I0
sg47
I0
sg48
I1
sg49
I0
sg50
I0
sg51
I11
sg52
I5
sg53
I0
sg54
I0
sg55
I1
sg56
I9
sg57
I0
sg58
I0
sg59
I1
sg60
I16
sg61
I664
sg62
I0
sg63
I0
sg64
I1
sg65
I2
sg66
I8
sg67
I1
sg68
I662
sg69
I0
sg70
I0
sg71
I2
sg72
I34
sg73
I6
sg74
I2
sg75
I1
sg76
I4
sg77
I1
sg78
I8
sg79
I1
sg80
I0
sg81
I328
sg82
I0
sg83
I4
sg84
I35
ssg85
(dp98
I0
I1020
sI1
I519
sI2
I24
sI3
I9
sI4
I507
sI5
I989
sI6
I332
sI7
I8
sI8
I8
sI9
I670
sI10
I992
sI11
I35
sI12
I2
sI13
I6
sI14
I18
sI15
I50
sssI8
(dp99
g3
(dp100
g5
I0
sg6
I0
sg7
I0
sg8
I0
sg9
I0
sg10
I0
sg11
I0
sg12
I0
sg13
I0
sg14
I4
sg15
I0
sg16
I0
sg17
I0
sg18
I0
sg19
I3
sg20
I0
sg21
I6
sg22
I0
sg23
I0
sg24
I2
sg25
I1
sg26
I0
sg27
I1
sg28
I0
sg29
I2
sg30
I0
sg31
I0
sg32
I4
sg33
I0
sg34
I0
sg35
I0
sg36
I0
sg37
I0
sg38
I0
sg39
I0
sg40
I0
sg41
I1
sg42
I0
sg43
I0
sg44
I0
sg45
I0
sg46
I0
sg47
I0
sg48
I0
sg49
I0
sg50
I0
sg51
I0
sg52
I1
sg53
I0
sg54
I0
sg55
I1
sg56
I1
sg57
I0
sg58
I0
sg59
I1
sg60
I0
sg61
I3
sg62
I0
sg63
I0
sg64
I0
sg65
I0
sg66
I0
sg67
I0
sg68
I2
sg69
I0
sg70
I0
sg71
I0
sg72
I0
sg73
I1
sg74
I2
sg75
I0
sg76
I0
sg77
I0
sg78
I1
sg79
I0
sg80
I0
sg81
I0
sg82
I0
sg83
I1
sg84
I1
ssg85
(dp101
I0
I8
sI1
I4
sI2
I5
sI3
I0
sI4
I10
sI5
I2
sI6
I0
sI7
I0
sI8
I1
sI9
I4
sI10
I2
sI11
I1
sI12
I0
sI13
I1
sI14
I0
sI15
I0
sssI64
(dp102
g3
(dp103
g5
I1
sg6
I25
sg7
I0
sg8
I0
sg9
I2
sg10
I1
sg11
I0
sg12
I0
sg13
I1
sg14
I4
sg15
I1
sg16
I1
sg17
I0
sg18
I0
sg19
I22
sg20
I0
sg21
I29
sg22
I3
sg23
I2
sg24
I2
sg25
I9
sg26
I0
sg27
I3
sg28
I2
sg29
I35
sg30
I1
sg31
I0
sg32
I4
sg33
I3
sg34
I4
sg35
I0
sg36
I0
sg37
I0
sg38
I1
sg39
I4
sg40
I2
sg41
I31
sg42
I0
sg43
I0
sg44
I0
sg45
I0
sg46
I0
sg47
I0
sg48
I1
sg49
I0
sg50
I0
sg51
I4
sg52
I5
sg53
I0
sg54
I0
sg55
I1
sg56
I4
sg57
I0
sg58
I0
sg59
I1
sg60
I3
sg61
I44
sg62
I0
sg63
I0
sg64
I1
sg65
I2
sg66
I2
sg67
I1
sg68
I40
sg69
I0
sg70
I0
sg71
I1
sg72
I9
sg73
I4
sg74
I2
sg75
I0
sg76
I1
sg77
I1
sg78
I5
sg79
I1
sg80
I0
sg81
I2
sg82
I0
sg83
I4
sg84
I10
ssg85
(dp104
I0
I64
sI1
I37
sI2
I13
sI3
I6
sI4
I33
sI5
I46
sI6
I5
sI7
I5
sI8
I5
sI9
I48
sI10
I44
sI11
I10
sI12
I2
sI13
I6
sI14
I5
sI15
I12
sssI128
(dp105
g3
(dp106
g5
I1
sg6
I66
sg7
I0
sg8
I0
sg9
I2
sg10
I1
sg11
I0
sg12
I0
sg13
I1
sg14
I4
sg15
I2
sg16
I2
sg17
I0
sg18
I0
sg19
I42
sg20
I0
sg21
I50
sg22
I3
sg23
I4
sg24
I2
sg25
I11
sg26
I0
sg27
I3
sg28
I2
sg29
I78
sg30
I1
sg31
I0
sg32
I4
sg33
I4
sg34
I4
sg35
I0
sg36
I0
sg37
I0
sg38
I2
sg39
I4
sg40
I2
sg41
I89
sg42
I0
sg43
I0
sg44
I0
sg45
I0
sg46
I0
sg47
I0
sg48
I1
sg49
I0
sg50
I0
sg51
I4
sg52
I5
sg53
I0
sg54
I0
sg55
I1
sg56
I4
sg57
I0
sg58
I0
sg59
I1
sg60
I3
sg61
I103
sg62
I0
sg63
I0
sg64
I1
sg65
I2
sg66
I2
sg67
I1
sg68
I100
sg69
I0
sg70
I0
sg71
I1
sg72
I11
sg73
I5
sg74
I2
sg75
I1
sg76
I3
sg77
I1
sg78
I6
sg79
I1
sg80
I0
sg81
I3
sg82
I0
sg83
I4
sg84
I12
ssg85
(dp107
I0
I128
sI1
I80
sI2
I15
sI3
I6
sI4
I54
sI5
I107
sI6
I6
sI7
I8
sI8
I6
sI9
I108
sI10
I104
sI11
I12
sI12
I2
sI13
I6
sI14
I5
sI15
I14
sssI256
(dp108
g3
(dp109
g5
I1
sg6
I158
sg7
I0
sg8
I0
sg9
I3
sg10
I1
sg11
I0
sg12
I0
sg13
I1
sg14
I4
sg15
I6
sg16
I2
sg17
I0
sg18
I0
sg19
I76
sg20
I0
sg21
I85
sg22
I3
sg23
I4
sg24
I2
sg25
I12
sg26
I0
sg27
I3
sg28
I2
sg29
I171
sg30
I1
sg31
I0
sg32
I4
sg33
I5
sg34
I6
sg35
I0
sg36
I0
sg37
I0
sg38
I2
sg39
I5
sg40
I2
sg41
I208
sg42
I0
sg43
I0
sg44
I0
sg45
I0
sg46
I0
sg47
I0
sg48
I1
sg49
I0
sg50
I0
sg51
I5
sg52
I5
sg53
I0
sg54
I0
sg55
I1
sg56
I4
sg57
I0
sg58
I0
sg59
I1
sg60
I3
sg61
I227
sg62
I0
sg63
I0
sg64
I1
sg65
I2
sg66
I4
sg67
I1
sg68
I225
sg69
I0
sg70
I0
sg71
I2
sg72
I19
sg73
I6
sg74
I2
sg75
I1
sg76
I3
sg77
I1
sg78
I7
sg79
I1
sg80
I0
sg81
I5
sg82
I0
sg83
I4
sg84
I20
ssg85
(dp110
I0
I256
sI1
I173
sI2
I16
sI3
I8
sI4
I89
sI5
I233
sI6
I8
sI7
I8
sI8
I7
sI9
I233
sI10
I231
sI11
I20
sI12
I2
sI13
I6
sI14
I5
sI15
I22
sssI16
(dp111
g3
(dp112
g5
I1
sg6
I3
sg7
I0
sg8
I0
sg9
I1
sg10
I0
sg11
I0
sg12
I0
sg13
I0
sg14
I4
sg15
I0
sg16
I1
sg17
I0
sg18
I0
sg19
I4
sg20
I0
sg21
I7
sg22
I0
sg23
I2
sg24
I2
sg25
I5
sg26
I0
sg27
I1
sg28
I1
sg29
I9
sg30
I0
sg31
I0
sg32
I4
sg33
I0
sg34
I1
sg35
I0
sg36
I0
sg37
I0
sg38
I0
sg39
I2
sg40
I0
sg41
I3
sg42
I0
sg43
I0
sg44
I0
sg45
I0
sg46
I0
sg47
I0
sg48
I0
sg49
I0
sg50
I0
sg51
I0
sg52
I3
sg53
I0
sg54
I0
sg55
I1
sg56
I2
sg57
I0
sg58
I0
sg59
I1
sg60
I0
sg61
I6
sg62
I0
sg63
I0
sg64
I0
sg65
I1
sg66
I0
sg67
I0
sg68
I3
sg69
I0
sg70
I0
sg71
I0
sg72
I0
sg73
I1
sg74
I2
sg75
I0
sg76
I1
sg77
I0
sg78
I1
sg79
I0
sg80
I0
sg81
I1
sg82
I0
sg83
I3
sg84
I1
ssg85
(dp113
I0
I16
sI1
I11
sI2
I9
sI3
I2
sI4
I11
sI5
I6
sI6
I2
sI7
I4
sI8
I1
sI9
I7
sI10
I4
sI11
I1
sI12
I0
sI13
I3
sI14
I0
sI15
I0
sssI512
(dp114
g3
(dp115
g5
I1
sg6
I319
sg7
I0
sg8
I0
sg9
I3
sg10
I1
sg11
I0
sg12
I1
sg13
I1
sg14
I5
sg15
I10
sg16
I2
sg17
I0
sg18
I0
sg19
I169
sg20
I0
sg21
I179
sg22
I10
sg23
I4
sg24
I2
sg25
I13
sg26
I0
sg27
I3
sg28
I2
sg29
I333
sg30
I1
sg31
I0
sg32
I4
sg33
I8
sg34
I26
sg35
I0
sg36
I0
sg37
I0
sg38
I2
sg39
I5
sg40
I7
sg41
I444
sg42
I0
sg43
I0
sg44
I0
sg45
I0
sg46
I0
sg47
I0
sg48
I1
sg49
I0
sg50
I0
sg51
I8
sg52
I5
sg53
I0
sg54
I0
sg55
I1
sg56
I4
sg57
I0
sg58
I0
sg59
I1
sg60
I10
sg61
I461
sg62
I0
sg63
I0
sg64
I1
sg65
I2
sg66
I7
sg67
I1
sg68
I459
sg69
I0
sg70
I0
sg71
I2
sg72
I30
sg73
I6
sg74
I2
sg75
I1
sg76
I4
sg77
I1
sg78
I8
sg79
I1
sg80
I0
sg81
I25
sg82
I0
sg83
I4
sg84
I31
ssg85
(dp116
I0
I512
sI1
I335
sI2
I18
sI3
I8
sI4
I183
sI5
I487
sI6
I28
sI7
I8
sI8
I8
sI9
I467
sI10
I485
sI11
I31
sI12
I2
sI13
I6
sI14
I12
sI15
I40
sss.