(dp1
I32
(dp2
S'visit_count'
p3
(dp4
(I0
I1
tp5
I17536
s(I0
I0
tp6
I16921
s(I3
I0
tp7
I1239
s(I3
I1
tp8
I1336
s(I2
I1
tp9
I4166
s(I2
I0
tp10
I3918
s(I1
I0
tp11
I8711
s(I4
I1
tp12
I519
s(I1
I1
tp13
I8736
s(I4
I0
tp14
I438
ssS'query_count'
p15
(dp16
(I0
I1
tp17
I4
s(I0
I0
tp18
I8
s(I3
I0
tp19
I12
s(I3
I1
tp20
I1
s(I2
I1
tp21
I1
s(I2
I0
tp22
I9
s(I1
I0
tp23
I3
s(I4
I1
tp24
I1
s(I1
I1
tp25
I4
s(I4
I0
tp26
I30
sssI1
(dp27
g3
(dp28
g5
I17487
sg6
I16878
sg7
I1238
sg8
I1334
sg9
I4159
sg10
I3910
sg11
I8682
sg12
I519
sg13
I8720
sg14
I438
ssg15
(dp29
g17
I4
sg18
I8
sg19
I12
sg20
I1
sg21
I1
sg22
I9
sg23
I3
sg24
I1
sg25
I4
sg26
I30
sssI2
(dp30
g3
(dp31
g5
I17489
sg6
I16879
sg7
I1238
sg8
I1334
sg9
I4159
sg10
I3910
sg11
I8683
sg12
I519
sg13
I8721
sg14
I438
ssg15
(dp32
g17
I4
sg18
I8
sg19
I12
sg20
I1
sg21
I1
sg22
I9
sg23
I3
sg24
I1
sg25
I4
sg26
I30
sssI4
(dp33
g3
(dp34
g5
I17493
sg6
I16881
sg7
I1238
sg8
I1334
sg9
I4159
sg10
I3910
sg11
I8686
sg12
I519
sg13
I8722
sg14
I438
ssg15
(dp35
g17
I4
sg18
I8
sg19
I12
sg20
I1
sg21
I1
sg22
I9
sg23
I3
sg24
I1
sg25
I4
sg26
I30
sssI8
(dp36
g3
(dp37
g5
I17500
sg6
I16887
sg7
I1238
sg8
I1334
sg9
I4159
sg10
I3911
sg11
I8691
sg12
I519
sg13
I8723
sg14
I438
ssg15
(dp38
g17
I4
sg18
I8
sg19
I12
sg20
I1
sg21
I1
sg22
I9
sg23
I3
sg24
I1
sg25
I4
sg26
I30
sssI64
(dp39
g3
(dp40
g5
I17573
sg6
I16970
sg7
I1241
sg8
I1342
sg9
I4175
sg10
I3932
sg11
I8723
sg12
I522
sg13
I8762
sg14
I440
ssg15
(dp41
g17
I4
sg18
I8
sg19
I12
sg20
I1
sg21
I1
sg22
I9
sg23
I3
sg24
I1
sg25
I4
sg26
I30
sssI128
(dp42
g3
(dp43
g5
I17663
sg6
I17057
sg7
I1250
sg8
I1350
sg9
I4199
sg10
I3947
sg11
I8766
sg12
I523
sg13
I8803
sg14
I442
ssg15
(dp44
g17
I4
sg18
I8
sg19
I12
sg20
I1
sg21
I1
sg22
I9
sg23
I3
sg24
I1
sg25
I4
sg26
I30
sssI16
(dp45
g3
(dp46
g5
I17510
sg6
I16900
sg7
I1238
sg8
I1336
sg9
I4162
sg10
I3913
sg11
I8696
sg12
I519
sg13
I8728
sg14
I438
ssg15
(dp47
g17
I4
sg18
I8
sg19
I12
sg20
I1
sg21
I1
sg22
I9
sg23
I3
sg24
I1
sg25
I4
sg26
I30
sss.