(dp1
I32
(dp2
S'visit_count'
p3
(dp4
(I0
I1
tp5
I47
s(I9
I0
tp6
I0
s(I0
I0
tp7
I10
s(I7
I0
tp8
I3
s(I9
I1
tp9
I4
s(I7
I1
tp10
I10
s(I8
I1
tp11
I4
s(I6
I1
tp12
I10
s(I3
I1
tp13
I36
s(I6
I0
tp14
I7
s(I2
I1
tp15
I42
s(I3
I0
tp16
I24
s(I5
I0
tp17
I4
s(I5
I1
tp18
I18
s(I8
I0
tp19
I3
s(I2
I0
tp20
I9
s(I1
I0
tp21
I22
s(I4
I1
tp22
I15
s(I1
I1
tp23
I34
s(I4
I0
tp24
I18
ssS'query_count'
p25
(dp26
(I0
I1
tp27
I37
s(I9
I0
tp28
I0
s(I0
I0
tp29
I10
s(I7
I0
tp30
I3
s(I9
I1
tp31
I4
s(I7
I1
tp32
I8
s(I8
I1
tp33
I4
s(I6
I1
tp34
I7
s(I3
I1
tp35
I32
s(I6
I0
tp36
I3
s(I2
I1
tp37
I26
s(I3
I0
tp38
I23
s(I5
I0
tp39
I4
s(I5
I1
tp40
I15
s(I8
I0
tp41
I3
s(I2
I0
tp42
I9
s(I1
I0
tp43
I16
s(I4
I1
tp44
I12
s(I1
I1
tp45
I23
s(I4
I0
tp46
I18
sssI1
(dp47
g3
(dp48
g5
I1
sg6
I0
sg7
I0
sg8
I0
sg9
I0
sg10
I0
sg11
I0
sg12
I0
sg13
I4
sg14
I0
sg15
I1
sg16
I0
sg17
I0
sg18
I0
sg19
I0
sg20
I0
sg21
I0
sg22
I0
sg23
I1
sg24
I3
ssg25
(dp49
g27
I1
sg28
I0
sg29
I0
sg30
I0
sg31
I0
sg32
I0
sg33
I0
sg34
I0
sg35
I4
sg36
I0
sg37
I1
sg38
I0
sg39
I0
sg40
I0
sg41
I0
sg42
I0
sg43
I0
sg44
I0
sg45
I0
sg46
I3
sssI2
(dp50
g3
(dp51
g5
I1
sg6
I0
sg7
I10
sg8
I0
sg9
I0
sg10
I0
sg11
I0
sg12
I0
sg13
I4
sg14
I0
sg15
I1
sg16
I0
sg17
I0
sg18
I0
sg19
I0
sg20
I0
sg21
I0
sg22
I0
sg23
I1
sg24
I3
ssg25
(dp52
g27
I1
sg28
I0
sg29
I10
sg30
I0
sg31
I0
sg32
I0
sg33
I0
sg34
I0
sg35
I4
sg36
I0
sg37
I1
sg38
I0
sg39
I0
sg40
I0
sg41
I0
sg42
I0
sg43
I0
sg44
I0
sg45
I0
sg46
I3
sssI4
(dp53
g3
(dp54
g5
I11
sg6
I0
sg7
I10
sg8
I0
sg9
I0
sg10
I0
sg11
I0
sg12
I0
sg13
I4
sg14
I0
sg15
I1
sg16
I0
sg17
I0
sg18
I0
sg19
I0
sg20
I0
sg21
I10
sg22
I0
sg23
I1
sg24
I3
ssg25
(dp55
g27
I11
sg28
I0
sg29
I10
sg30
I0
sg31
I0
sg32
I0
sg33
I0
sg34
I0
sg35
I4
sg36
I0
sg37
I1
sg38
I0
sg39
I0
sg40
I0
sg41
I0
sg42
I0
sg43
I5
sg44
I0
sg45
I0
sg46
I3
sssI8
(dp56
g3
(dp57
g5
I15
sg6
I0
sg7
I10
sg8
I0
sg9
I0
sg10
I0
sg11
I0
sg12
I0
sg13
I6
sg14
I4
sg15
I11
sg16
I8
sg17
I0
sg18
I6
sg19
I0
sg20
I0
sg21
I10
sg22
I2
sg23
I5
sg24
I3
ssg25
(dp58
g27
I14
sg28
I0
sg29
I10
sg30
I0
sg31
I0
sg32
I0
sg33
I0
sg34
I0
sg35
I5
sg36
I2
sg37
I5
sg38
I8
sg39
I0
sg40
I6
sg41
I0
sg42
I0
sg43
I5
sg44
I1
sg45
I0
sg46
I3
sssI64
(dp59
g3
(dp60
g5
I91
sg6
I1
sg7
I10
sg8
I9
sg9
I19
sg10
I28
sg11
I20
sg12
I33
sg13
I65
sg14
I9
sg15
I75
sg16
I31
sg17
I13
sg18
I41
sg19
I4
sg20
I17
sg21
I38
sg22
I45
sg23
I70
sg24
I21
ssg25
(dp61
g27
I68
sg28
I1
sg29
I10
sg30
I9
sg31
I6
sg32
I13
sg33
I7
sg34
I17
sg35
I48
sg36
I5
sg37
I45
sg38
I30
sg39
I13
sg40
I25
sg41
I4
sg42
I17
sg43
I32
sg44
I29
sg45
I46
sg46
I21
sssI128
(dp62
g3
(dp63
g5
I155
sg6
I1
sg7
I10
sg8
I9
sg9
I83
sg10
I92
sg11
I84
sg12
I97
sg13
I129
sg14
I9
sg15
I139
sg16
I31
sg17
I13
sg18
I105
sg19
I4
sg20
I17
sg21
I38
sg22
I109
sg23
I134
sg24
I21
ssg25
(dp64
g27
I68
sg28
I1
sg29
I10
sg30
I9
sg31
I6
sg32
I13
sg33
I7
sg34
I17
sg35
I48
sg36
I5
sg37
I45
sg38
I30
sg39
I13
sg40
I25
sg41
I4
sg42
I17
sg43
I32
sg44
I29
sg45
I46
sg46
I21
sssI16
(dp65
g3
(dp66
g5
I27
sg6
I0
sg7
I10
sg8
I1
sg9
I0
sg10
I4
sg11
I0
sg12
I3
sg13
I16
sg14
I5
sg15
I23
sg16
I16
sg17
I1
sg18
I9
sg19
I2
sg20
I1
sg21
I16
sg22
I5
sg23
I12
sg24
I9
ssg25
(dp67
g27
I19
sg28
I0
sg29
I10
sg30
I1
sg31
I0
sg32
I2
sg33
I0
sg34
I1
sg35
I14
sg36
I3
sg37
I13
sg38
I15
sg39
I1
sg40
I7
sg41
I2
sg42
I1
sg43
I10
sg44
I2
sg45
I4
sg46
I9
sss.