(dp1
I32
(dp2
S'visit_count'
p3
(dp4
(I0
I1
tp5
I17521
s(I0
I0
tp6
I17410
s(I3
I0
tp7
I1163
s(I3
I1
tp8
I1172
s(I2
I1
tp9
I3890
s(I2
I0
tp10
I4003
s(I1
I0
tp11
I8875
s(I4
I1
tp12
I403
s(I1
I1
tp13
I8706
s(I4
I0
tp14
I377
ssS'query_count'
p15
(dp16
(I0
I1
tp17
I0
s(I0
I0
tp18
I0
s(I3
I0
tp19
I1
s(I3
I1
tp20
I0
s(I2
I1
tp21
I0
s(I2
I0
tp22
I0
s(I1
I0
tp23
I0
s(I4
I1
tp24
I0
s(I1
I1
tp25
I0
s(I4
I0
tp26
I0
sssI1
(dp27
g3
(dp28
g5
I17475
sg6
I17366
sg7
I1163
sg8
I1171
sg9
I3886
sg10
I3990
sg11
I8850
sg12
I403
sg13
I8684
sg14
I377
ssg15
(dp29
g17
I0
sg18
I0
sg19
I1
sg20
I0
sg21
I0
sg22
I0
sg23
I0
sg24
I0
sg25
I0
sg26
I0
sssI2
(dp30
g3
(dp31
g5
I17477
sg6
I17367
sg7
I1163
sg8
I1171
sg9
I3886
sg10
I3990
sg11
I8852
sg12
I403
sg13
I8684
sg14
I377
ssg15
(dp32
g17
I0
sg18
I0
sg19
I1
sg20
I0
sg21
I0
sg22
I0
sg23
I0
sg24
I0
sg25
I0
sg26
I0
sssI4
(dp33
g3
(dp34
g5
I17480
sg6
I17368
sg7
I1163
sg8
I1171
sg9
I3886
sg10
I3992
sg11
I8853
sg12
I403
sg13
I8687
sg14
I377
ssg15
(dp35
g17
I0
sg18
I0
sg19
I1
sg20
I0
sg21
I0
sg22
I0
sg23
I0
sg24
I0
sg25
I0
sg26
I0
sssI8
(dp36
g3
(dp37
g5
I17486
sg6
I17373
sg7
I1163
sg8
I1171
sg9
I3887
sg10
I3994
sg11
I8856
sg12
I403
sg13
I8690
sg14
I377
ssg15
(dp38
g17
I0
sg18
I0
sg19
I1
sg20
I0
sg21
I0
sg22
I0
sg23
I0
sg24
I0
sg25
I0
sg26
I0
sssI64
(dp39
g3
(dp40
g5
I17566
sg6
I17447
sg7
I1166
sg8
I1176
sg9
I3903
sg10
I4013
sg11
I8895
sg12
I405
sg13
I8730
sg14
I379
ssg15
(dp41
g17
I0
sg18
I0
sg19
I1
sg20
I0
sg21
I0
sg22
I0
sg23
I0
sg24
I0
sg25
I0
sg26
I0
sssI128
(dp42
g3
(dp43
g5
I17654
sg6
I17536
sg7
I1173
sg8
I1183
sg9
I3924
sg10
I4030
sg11
I8942
sg12
I407
sg13
I8771
sg14
I380
ssg15
(dp44
g17
I0
sg18
I0
sg19
I1
sg20
I0
sg21
I0
sg22
I0
sg23
I0
sg24
I0
sg25
I0
sg26
I0
sssI16
(dp45
g3
(dp46
g5
I17499
sg6
I17381
sg7
I1163
sg8
I1172
sg9
I3888
sg10
I3998
sg11
I8863
sg12
I403
sg13
I8696
sg14
I377
ssg15
(dp47
g17
I0
sg18
I0
sg19
I1
sg20
I0
sg21
I0
sg22
I0
sg23
I0
sg24
I0
sg25
I0
sg26
I0
sss.