(dp1
I32
(dp2
S'visit_count'
p3
(dp4
(I7
I3
tp5
I0
s(I1
I3
tp6
I0
s(I12
I1
tp7
I0
s(I9
I1
tp8
I0
s(I3
I0
tp9
I0
s(I14
I4
tp10
I0
s(I11
I2
tp11
I0
s(I8
I0
tp12
I3
s(I3
I2
tp13
I0
s(I2
I1
tp14
I0
s(I15
I1
tp15
I0
s(I6
I2
tp16
I0
s(I14
I0
tp17
I0
s(I9
I4
tp18
I0
s(I4
I2
tp19
I0
s(I5
I1
tp20
I0
s(I0
I3
tp21
I20
s(I10
I3
tp22
I7
s(I7
I2
tp23
I0
s(I4
I0
tp24
I2
s(I1
I2
tp25
I0
s(I12
I2
tp26
I0
s(I9
I0
tp27
I0
s(I3
I3
tp28
I0
s(I0
I2
tp29
I15
s(I13
I3
tp30
I0
s(I8
I1
tp31
I0
s(I4
I4
tp32
I5
s(I15
I0
tp33
I0
s(I6
I3
tp34
I0
s(I11
I4
tp35
I0
s(I14
I1
tp36
I0
s(I11
I1
tp37
I0
s(I5
I0
tp38
I0
s(I2
I2
tp39
I0
s(I15
I4
tp40
I0
s(I10
I0
tp41
I1
s(I4
I1
tp42
I3
s(I13
I4
tp43
I0
s(I12
I3
tp44
I0
s(I6
I4
tp45
I0
s(I5
I4
tp46
I0
s(I0
I0
tp47
I13
s(I13
I2
tp48
I0
s(I10
I4
tp49
I2
s(I7
I1
tp50
I0
s(I15
I3
tp51
I0
s(I9
I3
tp52
I3
s(I6
I0
tp53
I0
s(I1
I4
tp54
I0
s(I11
I0
tp55
I0
s(I2
I3
tp56
I0
s(I10
I1
tp57
I0
s(I0
I4
tp58
I15
s(I1
I0
tp59
I0
s(I14
I2
tp60
I0
s(I5
I3
tp61
I0
s(I0
I1
tp62
I15
s(I13
I1
tp63
I0
s(I8
I3
tp64
I0
s(I7
I0
tp65
I0
s(I15
I2
tp66
I0
s(I12
I0
tp67
I0
s(I9
I2
tp68
I8
s(I3
I4
tp69
I0
s(I6
I1
tp70
I0
s(I3
I1
tp71
I0
s(I11
I3
tp72
I0
s(I8
I2
tp73
I9
s(I1
I1
tp74
I0
s(I7
I4
tp75
I0
s(I2
I0
tp76
I0
s(I12
I4
tp77
I0
s(I4
I3
tp78
I12
s(I14
I3
tp79
I0
s(I8
I4
tp80
I2
s(I5
I2
tp81
I0
s(I2
I4
tp82
I0
s(I13
I0
tp83
I0
s(I10
I2
tp84
I5
ssS'query_count'
p85
(dp86
(I7
I3
tp87
I0
s(I1
I3
tp88
I0
s(I12
I1
tp89
I0
s(I9
I1
tp90
I0
s(I3
I0
tp91
I0
s(I14
I4
tp92
I0
s(I11
I2
tp93
I0
s(I8
I0
tp94
I0
s(I3
I2
tp95
I0
s(I2
I1
tp96
I0
s(I15
I1
tp97
I0
s(I6
I2
tp98
I0
s(I14
I0
tp99
I0
s(I9
I4
tp100
I0
s(I4
I2
tp101
I0
s(I5
I1
tp102
I0
s(I0
I3
tp103
I5
s(I10
I3
tp104
I4
s(I7
I2
tp105
I0
s(I4
I0
tp106
I1
s(I1
I2
tp107
I0
s(I12
I2
tp108
I0
s(I9
I0
tp109
I0
s(I3
I3
tp110
I0
s(I0
I2
tp111
I0
s(I13
I3
tp112
I0
s(I8
I1
tp113
I0
s(I4
I4
tp114
I0
s(I15
I0
tp115
I0
s(I6
I3
tp116
I0
s(I11
I4
tp117
I0
s(I14
I1
tp118
I0
s(I11
I1
tp119
I0
s(I5
I0
tp120
I0
s(I2
I2
tp121
I0
s(I15
I4
tp122
I0
s(I10
I0
tp123
I1
s(I4
I1
tp124
I3
s(I13
I4
tp125
I0
s(I12
I3
tp126
I0
s(I6
I4
tp127
I0
s(I5
I4
tp128
I0
s(I0
I0
tp129
I0
s(I13
I2
tp130
I0
s(I10
I4
tp131
I1
s(I7
I1
tp132
I0
s(I15
I3
tp133
I0
s(I9
I3
tp134
I3
s(I6
I0
tp135
I0
s(I1
I4
tp136
I0
s(I11
I0
tp137
I0
s(I2
I3
tp138
I0
s(I10
I1
tp139
I0
s(I0
I4
tp140
I0
s(I1
I0
tp141
I0
s(I14
I2
tp142
I0
s(I5
I3
tp143
I0
s(I0
I1
tp144
I6
s(I13
I1
tp145
I0
s(I8
I3
tp146
I0
s(I7
I0
tp147
I0
s(I15
I2
tp148
I0
s(I12
I0
tp149
I0
s(I9
I2
tp150
I0
s(I3
I4
tp151
I0
s(I6
I1
tp152
I0
s(I3
I1
tp153
I0
s(I11
I3
tp154
I0
s(I8
I2
tp155
I1
s(I1
I1
tp156
I0
s(I7
I4
tp157
I0
s(I2
I0
tp158
I0
s(I12
I4
tp159
I0
s(I4
I3
tp160
I2
s(I14
I3
tp161
I0
s(I8
I4
tp162
I0
s(I5
I2
tp163
I0
s(I2
I4
tp164
I0
s(I13
I0
tp165
I0
s(I10
I2
tp166
I2
sssI1
(dp167
g3
(dp168
g5
I0
sg6
I0
sg7
I0
sg8
I0
sg9
I0
sg10
I0
sg11
I0
sg12
I0
sg13
I0
sg14
I0
sg15
I0
sg16
I0
sg17
I0
sg18
I0
sg19
I0
sg20
I0
sg21
I1
sg22
I0
sg23
I0
sg24
I1
sg25
I0
sg26
I0
sg27
I0
sg28
I0
sg29
I0
sg30
I0
sg31
I0
sg32
I0
sg33
I0
sg34
I0
sg35
I0
sg36
I0
sg37
I0
sg38
I0
sg39
I0
sg40
I0
sg41
I0
sg42
I0
sg43
I0
sg44
I0
sg45
I0
sg46
I0
sg47
I0
sg48
I0
sg49
I0
sg50
I0
sg51
I0
sg52
I0
sg53
I0
sg54
I0
sg55
I0
sg56
I0
sg57
I0
sg58
I0
sg59
I0
sg60
I0
sg61
I0
sg62
I0
sg63
I0
sg64
I0
sg65
I0
sg66
I0
sg67
I0
sg68
I0
sg69
I0
sg70
I0
sg71
I0
sg72
I0
sg73
I0
sg74
I0
sg75
I0
sg76
I0
sg77
I0
sg78
I0
sg79
I0
sg80
I0
sg81
I0
sg82
I0
sg83
I0
sg84
I0
ssg85
(dp169
g87
I0
sg88
I0
sg89
I0
sg90
I0
sg91
I0
sg92
I0
sg93
I0
sg94
I0
sg95
I0
sg96
I0
sg97
I0
sg98
I0
sg99
I0
sg100
I0
sg101
I0
sg102
I0
sg103
I1
sg104
I0
sg105
I0
sg106
I1
sg107
I0
sg108
I0
sg109
I0
sg110
I0
sg111
I0
sg112
I0
sg113
I0
sg114
I0
sg115
I0
sg116
I0
sg117
I0
sg118
I0
sg119
I0
sg120
I0
sg121
I0
sg122
I0
sg123
I0
sg124
I0
sg125
I0
sg126
I0
sg127
I0
sg128
I0
sg129
I0
sg130
I0
sg131
I0
sg132
I0
sg133
I0
sg134
I0
sg135
I0
sg136
I0
sg137
I0
sg138
I0
sg139
I0
sg140
I0
sg141
I0
sg142
I0
sg143
I0
sg144
I0
sg145
I0
sg146
I0
sg147
I0
sg148
I0
sg149
I0
sg150
I0
sg151
I0
sg152
I0
sg153
I0
sg154
I0
sg155
I0
sg156
I0
sg157
I0
sg158
I0
sg159
I0
sg160
I0
sg161
I0
sg162
I0
sg163
I0
sg164
I0
sg165
I0
sg166
I0
sssI2
(dp170
g3
(dp171
g5
I0
sg6
I0
sg7
I0
sg8
I0
sg9
I0
sg10
I0
sg11
I0
sg12
I0
sg13
I0
sg14
I0
sg15
I0
sg16
I0
sg17
I0
sg18
I0
sg19
I0
sg20
I0
sg21
I2
sg22
I0
sg23
I0
sg24
I1
sg25
I0
sg26
I0
sg27
I0
sg28
I0
sg29
I0
sg30
I0
sg31
I0
sg32
I5
sg33
I0
sg34
I0
sg35
I0
sg36
I0
sg37
I0
sg38
I0
sg39
I0
sg40
I0
sg41
I0
sg42
I0
sg43
I0
sg44
I0
sg45
I0
sg46
I0
sg47
I0
sg48
I0
sg49
I0
sg50
I0
sg51
I0
sg52
I0
sg53
I0
sg54
I0
sg55
I0
sg56
I0
sg57
I0
sg58
I0
sg59
I0
sg60
I0
sg61
I0
sg62
I0
sg63
I0
sg64
I0
sg65
I0
sg66
I0
sg67
I0
sg68
I0
sg69
I0
sg70
I0
sg71
I0
sg72
I0
sg73
I0
sg74
I0
sg75
I0
sg76
I0
sg77
I0
sg78
I0
sg79
I0
sg80
I0
sg81
I0
sg82
I0
sg83
I0
sg84
I0
ssg85
(dp172
g87
I0
sg88
I0
sg89
I0
sg90
I0
sg91
I0
sg92
I0
sg93
I0
sg94
I0
sg95
I0
sg96
I0
sg97
I0
sg98
I0
sg99
I0
sg100
I0
sg101
I0
sg102
I0
sg103
I1
sg104
I0
sg105
I0
sg106
I1
sg107
I0
sg108
I0
sg109
I0
sg110
I0
sg111
I0
sg112
I0
sg113
I0
sg114
I0
sg115
I0
sg116
I0
sg117
I0
sg118
I0
sg119
I0
sg120
I0
sg121
I0
sg122
I0
sg123
I0
sg124
I0
sg125
I0
sg126
I0
sg127
I0
sg128
I0
sg129
I0
sg130
I0
sg131
I0
sg132
I0
sg133
I0
sg134
I0
sg135
I0
sg136
I0
sg137
I0
sg138
I0
sg139
I0
sg140
I0
sg141
I0
sg142
I0
sg143
I0
sg144
I0
sg145
I0
sg146
I0
sg147
I0
sg148
I0
sg149
I0
sg150
I0
sg151
I0
sg152
I0
sg153
I0
sg154
I0
sg155
I0
sg156
I0
sg157
I0
sg158
I0
sg159
I0
sg160
I0
sg161
I0
sg162
I0
sg163
I0
sg164
I0
sg165
I0
sg166
I0
sssI4
(dp173
g3
(dp174
g5
I0
sg6
I0
sg7
I0
sg8
I0
sg9
I0
sg10
I0
sg11
I0
sg12
I0
sg13
I0
sg14
I0
sg15
I0
sg16
I0
sg17
I0
sg18
I0
sg19
I0
sg20
I0
sg21
I6
sg22
I0
sg23
I0
sg24
I2
sg25
I0
sg26
I0
sg27
I0
sg28
I0
sg29
I0
sg30
I0
sg31
I0
sg32
I5
sg33
I0
sg34
I0
sg35
I0
sg36
I0
sg37
I0
sg38
I0
sg39
I0
sg40
I0
sg41
I0
sg42
I3
sg43
I0
sg44
I0
sg45
I0
sg46
I0
sg47
I0
sg48
I0
sg49
I0
sg50
I0
sg51
I0
sg52
I0
sg53
I0
sg54
I0
sg55
I0
sg56
I0
sg57
I0
sg58
I0
sg59
I0
sg60
I0
sg61
I0
sg62
I0
sg63
I0
sg64
I0
sg65
I0
sg66
I0
sg67
I0
sg68
I0
sg69
I0
sg70
I0
sg71
I0
sg72
I0
sg73
I0
sg74
I0
sg75
I0
sg76
I0
sg77
I0
sg78
I0
sg79
I0
sg80
I0
sg81
I0
sg82
I0
sg83
I0
sg84
I0
ssg85
(dp175
g87
I0
sg88
I0
sg89
I0
sg90
I0
sg91
I0
sg92
I0
sg93
I0
sg94
I0
sg95
I0
sg96
I0
sg97
I0
sg98
I0
sg99
I0
sg100
I0
sg101
I0
sg102
I0
sg103
I4
sg104
I0
sg105
I0
sg106
I1
sg107
I0
sg108
I0
sg109
I0
sg110
I0
sg111
I0
sg112
I0
sg113
I0
sg114
I0
sg115
I0
sg116
I0
sg117
I0
sg118
I0
sg119
I0
sg120
I0
sg121
I0
sg122
I0
sg123
I0
sg124
I3
sg125
I0
sg126
I0
sg127
I0
sg128
I0
sg129
I0
sg130
I0
sg131
I0
sg132
I0
sg133
I0
sg134
I0
sg135
I0
sg136
I0
sg137
I0
sg138
I0
sg139
I0
sg140
I0
sg141
I0
sg142
I0
sg143
I0
sg144
I0
sg145
I0
sg146
I0
sg147
I0
sg148
I0
sg149
I0
sg150
I0
sg151
I0
sg152
I0
sg153
I0
sg154
I0
sg155
I0
sg156
I0
sg157
I0
sg158
I0
sg159
I0
sg160
I0
sg161
I0
sg162
I0
sg163
I0
sg164
I0
sg165
I0
sg166
I0
sssI8
(dp176
g3
(dp177
g5
I0
sg6
I0
sg7
I0
sg8
I0
sg9
I0
sg10
I0
sg11
I0
sg12
I0
sg13
I0
sg14
I0
sg15
I0
sg16
I0
sg17
I0
sg18
I0
sg19
I0
sg20
I0
sg21
I7
sg22
I0
sg23
I0
sg24
I2
sg25
I0
sg26
I0
sg27
I0
sg28
I0
sg29
I2
sg30
I0
sg31
I0
sg32
I5
sg33
I0
sg34
I0
sg35
I0
sg36
I0
sg37
I0
sg38
I0
sg39
I0
sg40
I0
sg41
I0
sg42
I3
sg43
I0
sg44
I0
sg45
I0
sg46
I0
sg47
I3
sg48
I0
sg49
I0
sg50
I0
sg51
I0
sg52
I3
sg53
I0
sg54
I0
sg55
I0
sg56
I0
sg57
I0
sg58
I4
sg59
I0
sg60
I0
sg61
I0
sg62
I3
sg63
I0
sg64
I0
sg65
I0
sg66
I0
sg67
I0
sg68
I0
sg69
I0
sg70
I0
sg71
I0
sg72
I0
sg73
I1
sg74
I0
sg75
I0
sg76
I0
sg77
I0
sg78
I1
sg79
I0
sg80
I0
sg81
I0
sg82
I0
sg83
I0
sg84
I0
ssg85
(dp178
g87
I0
sg88
I0
sg89
I0
sg90
I0
sg91
I0
sg92
I0
sg93
I0
sg94
I0
sg95
I0
sg96
I0
sg97
I0
sg98
I0
sg99
I0
sg100
I0
sg101
I0
sg102
I0
sg103
I5
sg104
I0
sg105
I0
sg106
I1
sg107
I0
sg108
I0
sg109
I0
sg110
I0
sg111
I0
sg112
I0
sg113
I0
sg114
I0
sg115
I0
sg116
I0
sg117
I0
sg118
I0
sg119
I0
sg120
I0
sg121
I0
sg122
I0
sg123
I0
sg124
I3
sg125
I0
sg126
I0
sg127
I0
sg128
I0
sg129
I0
sg130
I0
sg131
I0
sg132
I0
sg133
I0
sg134
I3
sg135
I0
sg136
I0
sg137
I0
sg138
I0
sg139
I0
sg140
I0
sg141
I0
sg142
I0
sg143
I0
sg144
I0
sg145
I0
sg146
I0
sg147
I0
sg148
I0
sg149
I0
sg150
I0
sg151
I0
sg152
I0
sg153
I0
sg154
I0
sg155
I1
sg156
I0
sg157
I0
sg158
I0
sg159
I0
sg160
I1
sg161
I0
sg162
I0
sg163
I0
sg164
I0
sg165
I0
sg166
I0
sssI64
(dp179
g3
(dp180
g5
I0
sg6
I0
sg7
I0
sg8
I0
sg9
I0
sg10
I0
sg11
I0
sg12
I3
sg13
I0
sg14
I0
sg15
I0
sg16
I0
sg17
I0
sg18
I0
sg19
I0
sg20
I0
sg21
I52
sg22
I17
sg23
I0
sg24
I2
sg25
I0
sg26
I0
sg27
I0
sg28
I0
sg29
I15
sg30
I0
sg31
I0
sg32
I5
sg33
I0
sg34
I0
sg35
I0
sg36
I0
sg37
I0
sg38
I0
sg39
I0
sg40
I0
sg41
I14
sg42
I3
sg43
I0
sg44
I0
sg45
I0
sg46
I0
sg47
I13
sg48
I0
sg49
I3
sg50
I0
sg51
I0
sg52
I3
sg53
I0
sg54
I0
sg55
I0
sg56
I0
sg57
I11
sg58
I15
sg59
I0
sg60
I0
sg61
I0
sg62
I15
sg63
I0
sg64
I0
sg65
I0
sg66
I0
sg67
I0
sg68
I40
sg69
I0
sg70
I0
sg71
I0
sg72
I0
sg73
I41
sg74
I0
sg75
I0
sg76
I0
sg77
I0
sg78
I44
sg79
I0
sg80
I2
sg81
I0
sg82
I0
sg83
I0
sg84
I22
ssg85
(dp181
g87
I0
sg88
I0
sg89
I0
sg90
I0
sg91
I0
sg92
I0
sg93
I0
sg94
I0
sg95
I0
sg96
I0
sg97
I0
sg98
I0
sg99
I0
sg100
I0
sg101
I0
sg102
I0
sg103
I5
sg104
I6
sg105
I0
sg106
I1
sg107
I0
sg108
I0
sg109
I0
sg110
I0
sg111
I0
sg112
I0
sg113
I0
sg114
I0
sg115
I0
sg116
I0
sg117
I0
sg118
I0
sg119
I0
sg120
I0
sg121
I0
sg122
I0
sg123
I9
sg124
I3
sg125
I0
sg126
I0
sg127
I0
sg128
I0
sg129
I0
sg130
I0
sg131
I1
sg132
I0
sg133
I0
sg134
I3
sg135
I0
sg136
I0
sg137
I0
sg138
I0
sg139
I6
sg140
I0
sg141
I0
sg142
I0
sg143
I0
sg144
I6
sg145
I0
sg146
I0
sg147
I0
sg148
I0
sg149
I0
sg150
I0
sg151
I0
sg152
I0
sg153
I0
sg154
I0
sg155
I1
sg156
I0
sg157
I0
sg158
I0
sg159
I0
sg160
I2
sg161
I0
sg162
I0
sg163
I0
sg164
I0
sg165
I0
sg166
I6
sssI128
(dp182
g3
(dp183
g5
I0
sg6
I0
sg7
I0
sg8
I0
sg9
I0
sg10
I0
sg11
I0
sg12
I3
sg13
I0
sg14
I0
sg15
I0
sg16
I0
sg17
I0
sg18
I0
sg19
I0
sg20
I0
sg21
I116
sg22
I40
sg23
I0
sg24
I2
sg25
I0
sg26
I0
sg27
I0
sg28
I0
sg29
I15
sg30
I0
sg31
I0
sg32
I5
sg33
I0
sg34
I0
sg35
I0
sg36
I0
sg37
I0
sg38
I0
sg39
I0
sg40
I0
sg41
I43
sg42
I3
sg43
I0
sg44
I0
sg45
I0
sg46
I0
sg47
I13
sg48
I0
sg49
I15
sg50
I0
sg51
I0
sg52
I3
sg53
I0
sg54
I0
sg55
I0
sg56
I0
sg57
I36
sg58
I15
sg59
I0
sg60
I0
sg61
I0
sg62
I15
sg63
I0
sg64
I0
sg65
I0
sg66
I0
sg67
I0
sg68
I104
sg69
I0
sg70
I0
sg71
I0
sg72
I0
sg73
I105
sg74
I0
sg75
I0
sg76
I0
sg77
I0
sg78
I108
sg79
I0
sg80
I2
sg81
I0
sg82
I0
sg83
I0
sg84
I41
ssg85
(dp184
g87
I0
sg88
I0
sg89
I0
sg90
I0
sg91
I0
sg92
I0
sg93
I0
sg94
I0
sg95
I0
sg96
I0
sg97
I0
sg98
I0
sg99
I0
sg100
I0
sg101
I0
sg102
I0
sg103
I5
sg104
I7
sg105
I0
sg106
I1
sg107
I0
sg108
I0
sg109
I0
sg110
I0
sg111
I0
sg112
I0
sg113
I0
sg114
I0
sg115
I0
sg116
I0
sg117
I0
sg118
I0
sg119
I0
sg120
I0
sg121
I0
sg122
I0
sg123
I11
sg124
I3
sg125
I0
sg126
I0
sg127
I0
sg128
I0
sg129
I0
sg130
I0
sg131
I2
sg132
I0
sg133
I0
sg134
I3
sg135
I0
sg136
I0
sg137
I0
sg138
I0
sg139
I9
sg140
I0
sg141
I0
sg142
I0
sg143
I0
sg144
I6
sg145
I0
sg146
I0
sg147
I0
sg148
I0
sg149
I0
sg150
I0
sg151
I0
sg152
I0
sg153
I0
sg154
I0
sg155
I1
sg156
I0
sg157
I0
sg158
I0
sg159
I0
sg160
I2
sg161
I0
sg162
I0
sg163
I0
sg164
I0
sg165
I0
sg166
I6
sssI16
(dp185
g3
(dp186
g5
I0
sg6
I0
sg7
I0
sg8
I0
sg9
I0
sg10
I0
sg11
I0
sg12
I0
sg13
I0
sg14
I0
sg15
I0
sg16
I0
sg17
I0
sg18
I0
sg19
I0
sg20
I0
sg21
I9
sg22
I0
sg23
I0
sg24
I2
sg25
I0
sg26
I0
sg27
I0
sg28
I0
sg29
I13
sg30
I0
sg31
I0
sg32
I5
sg33
I0
sg34
I0
sg35
I0
sg36
I0
sg37
I0
sg38
I0
sg39
I0
sg40
I0
sg41
I0
sg42
I3
sg43
I0
sg44
I0
sg45
I0
sg46
I0
sg47
I9
sg48
I0
sg49
I0
sg50
I0
sg51
I0
sg52
I3
sg53
I0
sg54
I0
sg55
I0
sg56
I0
sg57
I0
sg58
I12
sg59
I0
sg60
I0
sg61
I0
sg62
I7
sg63
I0
sg64
I0
sg65
I0
sg66
I0
sg67
I0
sg68
I0
sg69
I0
sg70
I0
sg71
I0
sg72
I0
sg73
I1
sg74
I0
sg75
I0
sg76
I0
sg77
I0
sg78
I1
sg79
I0
sg80
I0
sg81
I0
sg82
I0
sg83
I0
sg84
I0
ssg85
(dp187
g87
I0
sg88
I0
sg89
I0
sg90
I0
sg91
I0
sg92
I0
sg93
I0
sg94
I0
sg95
I0
sg96
I0
sg97
I0
sg98
I0
sg99
I0
sg100
I0
sg101
I0
sg102
I0
sg103
I5
sg104
I0
sg105
I0
sg106
I1
sg107
I0
sg108
I0
sg109
I0
sg110
I0
sg111
I0
sg112
I0
sg113
I0
sg114
I0
sg115
I0
sg116
I0
sg117
I0
sg118
I0
sg119
I0
sg120
I0
sg121
I0
sg122
I0
sg123
I0
sg124
I3
sg125
I0
sg126
I0
sg127
I0
sg128
I0
sg129
I0
sg130
I0
sg131
I0
sg132
I0
sg133
I0
sg134
I3
sg135
I0
sg136
I0
sg137
I0
sg138
I0
sg139
I0
sg140
I0
sg141
I0
sg142
I0
sg143
I0
sg144
I0
sg145
I0
sg146
I0
sg147
I0
sg148
I0
sg149
I0
sg150
I0
sg151
I0
sg152
I0
sg153
I0
sg154
I0
sg155
I1
sg156
I0
sg157
I0
sg158
I0
sg159
I0
sg160
I1
sg161
I0
sg162
I0
sg163
I0
sg164
I0
sg165
I0
sg166
I0
sss.