(dp1
I32
(dp2
S'visit_count'
p3
(dp4
(I0
I1
tp5
I18
s(I9
I0
tp6
I12
s(I0
I0
tp7
I14
s(I7
I0
tp8
I2
s(I9
I1
tp9
I18
s(I7
I1
tp10
I30
s(I8
I1
tp11
I1
s(I6
I1
tp12
I11
s(I3
I1
tp13
I18
s(I6
I0
tp14
I21
s(I2
I1
tp15
I16
s(I3
I0
tp16
I14
s(I5
I0
tp17
I18
s(I5
I1
tp18
I14
s(I8
I0
tp19
I1
s(I2
I0
tp20
I16
s(I1
I0
tp21
I13
s(I4
I1
tp22
I19
s(I1
I1
tp23
I19
s(I4
I0
tp24
I13
ssS'query_count'
p25
(dp26
I0
I0
sI1
I0
sI2
I0
sI3
I0
sI4
I0
sI5
I0
sI6
I0
sI7
I0
sI8
I1
sI9
I2
sssI1
(dp27
g3
(dp28
g5
I0
sg6
I0
sg7
I1
sg8
I1
sg9
I0
sg10
I0
sg11
I0
sg12
I0
sg13
I1
sg14
I1
sg15
I1
sg16
I0
sg17
I0
sg18
I1
sg19
I1
sg20
I0
sg21
I1
sg22
I1
sg23
I0
sg24
I0
ssg25
(dp29
I0
I0
sI1
I0
sI2
I0
sI3
I0
sI4
I0
sI5
I0
sI6
I0
sI7
I0
sI8
I0
sI9
I0
sssI2
(dp30
g3
(dp31
g5
I0
sg6
I1
sg7
I2
sg8
I1
sg9
I0
sg10
I1
sg11
I0
sg12
I0
sg13
I2
sg14
I2
sg15
I1
sg16
I0
sg17
I1
sg18
I1
sg19
I1
sg20
I1
sg21
I2
sg22
I2
sg23
I0
sg24
I0
ssg25
(dp32
I0
I0
sI1
I0
sI2
I0
sI3
I0
sI4
I0
sI5
I0
sI6
I0
sI7
I0
sI8
I0
sI9
I0
sssI4
(dp33
g3
(dp34
g5
I2
sg6
I1
sg7
I2
sg8
I1
sg9
I2
sg10
I3
sg11
I0
sg12
I0
sg13
I3
sg14
I4
sg15
I3
sg16
I1
sg17
I2
sg18
I2
sg19
I1
sg20
I1
sg21
I2
sg22
I3
sg23
I2
sg24
I1
ssg25
(dp35
I0
I0
sI1
I0
sI2
I0
sI3
I0
sI4
I0
sI5
I0
sI6
I0
sI7
I0
sI8
I0
sI9
I0
sssI1024
(dp36
g3
(dp37
g5
I514
sg6
I528
sg7
I510
sg8
I2
sg9
I494
sg10
I1022
sg11
I1
sg12
I520
sg13
I485
sg14
I504
sg15
I498
sg16
I539
sg17
I544
sg18
I480
sg19
I1
sg20
I526
sg21
I537
sg22
I489
sg23
I487
sg24
I535
ssg25
(dp38
I0
I0
sI1
I0
sI2
I0
sI3
I0
sI4
I0
sI5
I0
sI6
I0
sI7
I0
sI8
I1
sI9
I5
sssI8
(dp39
g3
(dp40
g5
I5
sg6
I3
sg7
I3
sg8
I1
sg9
I4
sg10
I7
sg11
I0
sg12
I0
sg13
I4
sg14
I8
sg15
I6
sg16
I4
sg17
I5
sg18
I3
sg19
I1
sg20
I2
sg21
I3
sg22
I6
sg23
I5
sg24
I2
ssg25
(dp41
I0
I0
sI1
I0
sI2
I0
sI3
I0
sI4
I0
sI5
I0
sI6
I0
sI7
I0
sI8
I0
sI9
I1
sssI64
(dp42
g3
(dp43
g5
I34
sg6
I33
sg7
I30
sg8
I2
sg9
I29
sg10
I62
sg11
I1
sg12
I26
sg13
I35
sg14
I38
sg15
I37
sg16
I29
sg17
I37
sg18
I27
sg19
I1
sg20
I27
sg21
I27
sg22
I34
sg23
I37
sg24
I30
ssg25
(dp44
I0
I0
sI1
I0
sI2
I0
sI3
I0
sI4
I0
sI5
I0
sI6
I0
sI7
I0
sI8
I1
sI9
I3
sssI128
(dp45
g3
(dp46
g5
I67
sg6
I66
sg7
I61
sg8
I2
sg9
I60
sg10
I126
sg11
I1
sg12
I65
sg13
I67
sg14
I63
sg15
I70
sg16
I61
sg17
I72
sg18
I56
sg19
I1
sg20
I58
sg21
I62
sg22
I74
sg23
I66
sg24
I54
ssg25
(dp47
I0
I0
sI1
I0
sI2
I0
sI3
I0
sI4
I0
sI5
I0
sI6
I0
sI7
I0
sI8
I1
sI9
I4
sssI256
(dp48
g3
(dp49
g5
I124
sg6
I139
sg7
I132
sg8
I2
sg9
I115
sg10
I254
sg11
I1
sg12
I123
sg13
I127
sg14
I133
sg15
I137
sg16
I129
sg17
I135
sg18
I121
sg19
I1
sg20
I119
sg21
I130
sg22
I125
sg23
I126
sg24
I131
ssg25
(dp50
I0
I0
sI1
I0
sI2
I0
sI3
I0
sI4
I0
sI5
I0
sI6
I0
sI7
I0
sI8
I1
sI9
I4
sssI16
(dp51
g3
(dp52
g5
I9
sg6
I4
sg7
I7
sg8
I1
sg9
I11
sg10
I15
sg11
I0
sg12
I2
sg13
I8
sg14
I14
sg15
I10
sg16
I8
sg17
I10
sg18
I6
sg19
I1
sg20
I6
sg21
I6
sg22
I11
sg23
I10
sg24
I5
ssg25
(dp53
I0
I0
sI1
I0
sI2
I0
sI3
I0
sI4
I0
sI5
I0
sI6
I0
sI7
I0
sI8
I0
sI9
I2
sssI512
(dp54
g3
(dp55
g5
I254
sg6
I266
sg7
I258
sg8
I2
sg9
I244
sg10
I510
sg11
I1
sg12
I243
sg13
I238
sg14
I269
sg15
I249
sg16
I274
sg17
I263
sg18
I249
sg19
I1
sg20
I263
sg21
I264
sg22
I245
sg23
I248
sg24
I267
ssg25
(dp56
I0
I0
sI1
I0
sI2
I0
sI3
I0
sI4
I0
sI5
I0
sI6
I0
sI7
I0
sI8
I1
sI9
I4
sss.