(dp1
I32
(dp2
S'visit_count'
p3
(dp4
(I0
I1
tp5
I67
s(I9
I0
tp6
I0
s(I0
I0
tp7
I25
s(I7
I0
tp8
I2
s(I9
I1
tp9
I0
s(I7
I1
tp10
I3
s(I8
I1
tp11
I0
s(I6
I1
tp12
I4
s(I3
I1
tp13
I17
s(I6
I0
tp14
I4
s(I2
I1
tp15
I27
s(I3
I0
tp16
I14
s(I5
I0
tp17
I15
s(I5
I1
tp18
I9
s(I8
I0
tp19
I1
s(I2
I0
tp20
I20
s(I1
I0
tp21
I45
s(I4
I1
tp22
I21
s(I1
I1
tp23
I41
s(I4
I0
tp24
I5
ssS'query_count'
p25
(dp26
(I0
I1
tp27
I11
s(I9
I0
tp28
I0
s(I0
I0
tp29
I10
s(I7
I0
tp30
I0
s(I9
I1
tp31
I0
s(I7
I1
tp32
I0
s(I8
I1
tp33
I0
s(I6
I1
tp34
I2
s(I3
I1
tp35
I0
s(I6
I0
tp36
I2
s(I2
I1
tp37
I4
s(I3
I0
tp38
I8
s(I5
I0
tp39
I9
s(I5
I1
tp40
I3
s(I8
I0
tp41
I0
s(I2
I0
tp42
I8
s(I1
I0
tp43
I10
s(I4
I1
tp44
I6
s(I1
I1
tp45
I6
s(I4
I0
tp46
I3
sssI1
(dp47
g3
(dp48
g5
I1
sg6
I0
sg7
I1
sg8
I0
sg9
I0
sg10
I0
sg11
I0
sg12
I0
sg13
I1
sg14
I2
sg15
I1
sg16
I0
sg17
I0
sg18
I2
sg19
I0
sg20
I0
sg21
I0
sg22
I1
sg23
I1
sg24
I0
ssg25
(dp49
g27
I1
sg28
I0
sg29
I0
sg30
I0
sg31
I0
sg32
I0
sg33
I0
sg34
I0
sg35
I0
sg36
I2
sg37
I0
sg38
I0
sg39
I0
sg40
I0
sg41
I0
sg42
I0
sg43
I0
sg44
I0
sg45
I0
sg46
I0
sssI2
(dp50
g3
(dp51
g5
I5
sg6
I0
sg7
I2
sg8
I0
sg9
I0
sg10
I0
sg11
I0
sg12
I0
sg13
I1
sg14
I2
sg15
I1
sg16
I0
sg17
I0
sg18
I2
sg19
I0
sg20
I1
sg21
I3
sg22
I1
sg23
I2
sg24
I0
ssg25
(dp52
g27
I1
sg28
I0
sg29
I0
sg30
I0
sg31
I0
sg32
I0
sg33
I0
sg34
I0
sg35
I0
sg36
I2
sg37
I0
sg38
I0
sg39
I0
sg40
I0
sg41
I0
sg42
I0
sg43
I0
sg44
I0
sg45
I0
sg46
I0
sssI4
(dp53
g3
(dp54
g5
I10
sg6
I0
sg7
I4
sg8
I0
sg9
I0
sg10
I0
sg11
I0
sg12
I0
sg13
I2
sg14
I2
sg15
I2
sg16
I0
sg17
I3
sg18
I2
sg19
I0
sg20
I1
sg21
I7
sg22
I4
sg23
I3
sg24
I0
ssg25
(dp55
g27
I1
sg28
I0
sg29
I0
sg30
I0
sg31
I0
sg32
I0
sg33
I0
sg34
I0
sg35
I0
sg36
I2
sg37
I0
sg38
I0
sg39
I3
sg40
I0
sg41
I0
sg42
I0
sg43
I0
sg44
I0
sg45
I0
sg46
I0
sssI8
(dp56
g3
(dp57
g5
I18
sg6
I0
sg7
I5
sg8
I0
sg9
I0
sg10
I1
sg11
I0
sg12
I1
sg13
I7
sg14
I2
sg15
I5
sg16
I0
sg17
I7
sg18
I3
sg19
I0
sg20
I1
sg21
I12
sg22
I9
sg23
I6
sg24
I3
ssg25
(dp58
g27
I1
sg28
I0
sg29
I0
sg30
I0
sg31
I0
sg32
I0
sg33
I0
sg34
I0
sg35
I0
sg36
I2
sg37
I0
sg38
I0
sg39
I3
sg40
I0
sg41
I0
sg42
I0
sg43
I5
sg44
I3
sg45
I0
sg46
I3
sssI64
(dp59
g3
(dp60
g5
I125
sg6
I0
sg7
I25
sg8
I10
sg9
I6
sg10
I11
sg11
I6
sg12
I18
sg13
I44
sg14
I4
sg15
I61
sg16
I30
sg17
I19
sg18
I20
sg19
I3
sg20
I42
sg21
I75
sg22
I36
sg23
I91
sg24
I14
ssg25
(dp61
g27
I12
sg28
I0
sg29
I10
sg30
I6
sg31
I1
sg32
I2
sg33
I1
sg34
I6
sg35
I4
sg36
I2
sg37
I4
sg38
I12
sg39
I9
sg40
I3
sg41
I2
sg42
I8
sg43
I15
sg44
I6
sg45
I6
sg46
I3
sssI128
(dp62
g3
(dp63
g5
I189
sg6
I0
sg7
I25
sg8
I10
sg9
I70
sg10
I75
sg11
I70
sg12
I82
sg13
I108
sg14
I4
sg15
I125
sg16
I30
sg17
I19
sg18
I84
sg19
I3
sg20
I42
sg21
I75
sg22
I100
sg23
I155
sg24
I14
ssg25
(dp64
g27
I12
sg28
I0
sg29
I10
sg30
I6
sg31
I1
sg32
I2
sg33
I1
sg34
I6
sg35
I4
sg36
I2
sg37
I4
sg38
I12
sg39
I9
sg40
I3
sg41
I2
sg42
I8
sg43
I15
sg44
I6
sg45
I6
sg46
I3
sssI16
(dp65
g3
(dp66
g5
I28
sg6
I0
sg7
I25
sg8
I0
sg9
I0
sg10
I3
sg11
I0
sg12
I2
sg13
I12
sg14
I2
sg15
I11
sg16
I2
sg17
I12
sg18
I5
sg19
I1
sg20
I5
sg21
I17
sg22
I16
sg23
I15
sg24
I4
ssg25
(dp67
g27
I1
sg28
I0
sg29
I10
sg30
I0
sg31
I0
sg32
I0
sg33
I0
sg34
I0
sg35
I0
sg36
I2
sg37
I0
sg38
I0
sg39
I6
sg40
I0
sg41
I0
sg42
I0
sg43
I10
sg44
I6
sg45
I5
sg46
I3
sss.