(dp1
I32
(dp2
S'visit_count'
p3
(dp4
(I0
I1
tp5
I58
s(I9
I0
tp6
I0
s(I0
I0
tp7
I60
s(I7
I0
tp8
I2
s(I9
I1
tp9
I0
s(I7
I1
tp10
I1
s(I8
I1
tp11
I0
s(I6
I1
tp12
I4
s(I3
I1
tp13
I20
s(I6
I0
tp14
I5
s(I2
I1
tp15
I27
s(I3
I0
tp16
I14
s(I5
I0
tp17
I7
s(I5
I1
tp18
I11
s(I8
I0
tp19
I0
s(I2
I0
tp20
I17
s(I1
I0
tp21
I35
s(I4
I1
tp22
I13
s(I1
I1
tp23
I36
s(I4
I0
tp24
I10
ssS'query_count'
p25
(dp26
(I0
I1
tp27
I0
s(I9
I0
tp28
I0
s(I0
I0
tp29
I0
s(I7
I0
tp30
I0
s(I9
I1
tp31
I0
s(I7
I1
tp32
I0
s(I8
I1
tp33
I0
s(I6
I1
tp34
I2
s(I3
I1
tp35
I0
s(I6
I0
tp36
I1
s(I2
I1
tp37
I0
s(I3
I0
tp38
I0
s(I5
I0
tp39
I3
s(I5
I1
tp40
I0
s(I8
I0
tp41
I0
s(I2
I0
tp42
I0
s(I1
I0
tp43
I0
s(I4
I1
tp44
I0
s(I1
I1
tp45
I0
s(I4
I0
tp46
I0
sssI1
(dp47
g3
(dp48
g5
I1
sg6
I0
sg7
I1
sg8
I0
sg9
I0
sg10
I0
sg11
I0
sg12
I0
sg13
I2
sg14
I0
sg15
I1
sg16
I0
sg17
I1
sg18
I0
sg19
I0
sg20
I0
sg21
I0
sg22
I1
sg23
I1
sg24
I2
ssg25
(dp49
g27
I0
sg28
I0
sg29
I0
sg30
I0
sg31
I0
sg32
I0
sg33
I0
sg34
I0
sg35
I0
sg36
I0
sg37
I0
sg38
I0
sg39
I0
sg40
I0
sg41
I0
sg42
I0
sg43
I0
sg44
I0
sg45
I0
sg46
I0
sssI2
(dp50
g3
(dp51
g5
I4
sg6
I0
sg7
I5
sg8
I0
sg9
I0
sg10
I0
sg11
I0
sg12
I0
sg13
I2
sg14
I0
sg15
I1
sg16
I0
sg17
I1
sg18
I0
sg19
I0
sg20
I0
sg21
I3
sg22
I1
sg23
I1
sg24
I2
ssg25
(dp52
g27
I0
sg28
I0
sg29
I0
sg30
I0
sg31
I0
sg32
I0
sg33
I0
sg34
I0
sg35
I0
sg36
I0
sg37
I0
sg38
I0
sg39
I0
sg40
I0
sg41
I0
sg42
I0
sg43
I0
sg44
I0
sg45
I0
sg46
I0
sssI4
(dp53
g3
(dp54
g5
I9
sg6
I0
sg7
I8
sg8
I0
sg9
I0
sg10
I0
sg11
I0
sg12
I0
sg13
I3
sg14
I1
sg15
I2
sg16
I0
sg17
I2
sg18
I2
sg19
I0
sg20
I0
sg21
I6
sg22
I3
sg23
I2
sg24
I2
ssg25
(dp55
g27
I0
sg28
I0
sg29
I0
sg30
I0
sg31
I0
sg32
I0
sg33
I0
sg34
I0
sg35
I0
sg36
I0
sg37
I0
sg38
I0
sg39
I0
sg40
I0
sg41
I0
sg42
I0
sg43
I0
sg44
I0
sg45
I0
sg46
I0
sssI8
(dp56
g3
(dp57
g5
I17
sg6
I0
sg7
I15
sg8
I0
sg9
I0
sg10
I0
sg11
I0
sg12
I0
sg13
I5
sg14
I1
sg15
I6
sg16
I2
sg17
I5
sg18
I2
sg19
I0
sg20
I1
sg21
I11
sg22
I6
sg23
I6
sg24
I3
ssg25
(dp58
g27
I0
sg28
I0
sg29
I0
sg30
I0
sg31
I0
sg32
I0
sg33
I0
sg34
I0
sg35
I0
sg36
I0
sg37
I0
sg38
I0
sg39
I3
sg40
I0
sg41
I0
sg42
I0
sg43
I0
sg44
I0
sg45
I0
sg46
I0
sssI64
(dp59
g3
(dp60
g5
I136
sg6
I0
sg7
I133
sg8
I3
sg9
I0
sg10
I1
sg11
I0
sg12
I5
sg13
I30
sg14
I7
sg15
I47
sg16
I24
sg17
I8
sg18
I14
sg19
I0
sg20
I37
sg21
I92
sg22
I16
sg23
I73
sg24
I14
ssg25
(dp61
g27
I0
sg28
I0
sg29
I0
sg30
I0
sg31
I0
sg32
I0
sg33
I0
sg34
I2
sg35
I0
sg36
I1
sg37
I0
sg38
I0
sg39
I3
sg40
I0
sg41
I0
sg42
I0
sg43
I0
sg44
I0
sg45
I0
sg46
I0
sssI128
(dp62
g3
(dp63
g5
I276
sg6
I0
sg7
I261
sg8
I5
sg9
I0
sg10
I2
sg11
I0
sg12
I10
sg13
I60
sg14
I8
sg15
I99
sg16
I51
sg17
I19
sg18
I21
sg19
I0
sg20
I74
sg21
I180
sg22
I35
sg23
I151
sg24
I28
ssg25
(dp64
g27
I0
sg28
I0
sg29
I0
sg30
I0
sg31
I0
sg32
I0
sg33
I0
sg34
I2
sg35
I0
sg36
I1
sg37
I0
sg38
I0
sg39
I3
sg40
I0
sg41
I0
sg42
I0
sg43
I0
sg44
I0
sg45
I0
sg46
I0
sssI16
(dp65
g3
(dp66
g5
I30
sg6
I0
sg7
I19
sg8
I1
sg9
I0
sg10
I1
sg11
I0
sg12
I2
sg13
I9
sg14
I3
sg15
I14
sg16
I8
sg17
I5
sg18
I6
sg19
I0
sg20
I10
sg21
I20
sg22
I8
sg23
I19
sg24
I5
ssg25
(dp67
g27
I0
sg28
I0
sg29
I0
sg30
I0
sg31
I0
sg32
I0
sg33
I0
sg34
I2
sg35
I0
sg36
I0
sg37
I0
sg38
I0
sg39
I3
sg40
I0
sg41
I0
sg42
I0
sg43
I0
sg44
I0
sg45
I0
sg46
I0
sss.