(dp1
I32
(dp2
S'visit_count'
p3
(dp4
(I7
I3
tp5
I0
s(I1
I3
tp6
I0
s(I12
I1
tp7
I1
s(I9
I1
tp8
I11
s(I3
I0
tp9
I0
s(I14
I4
tp10
I0
s(I11
I2
tp11
I0
s(I8
I0
tp12
I11
s(I3
I2
tp13
I0
s(I2
I1
tp14
I0
s(I15
I1
tp15
I0
s(I6
I2
tp16
I0
s(I14
I0
tp17
I0
s(I9
I4
tp18
I1
s(I4
I2
tp19
I5000
s(I5
I1
tp20
I4880
s(I0
I3
tp21
I6007
s(I10
I3
tp22
I402
s(I7
I2
tp23
I0
s(I4
I0
tp24
I4
s(I1
I2
tp25
I0
s(I12
I2
tp26
I11
s(I9
I0
tp27
I8
s(I3
I3
tp28
I0
s(I0
I2
tp29
I63
s(I13
I3
tp30
I6
s(I8
I1
tp31
I1
s(I4
I4
tp32
I93
s(I15
I0
tp33
I0
s(I6
I3
tp34
I0
s(I11
I4
tp35
I0
s(I14
I1
tp36
I0
s(I11
I1
tp37
I0
s(I5
I0
tp38
I1339
s(I2
I2
tp39
I0
s(I15
I4
tp40
I0
s(I10
I0
tp41
I229
s(I4
I1
tp42
I12
s(I13
I4
tp43
I2
s(I12
I3
tp44
I6
s(I6
I4
tp45
I0
s(I5
I4
tp46
I731
s(I0
I0
tp47
I16
s(I13
I2
tp48
I0
s(I10
I4
tp49
I138
s(I7
I1
tp50
I0
s(I15
I3
tp51
I0
s(I9
I3
tp52
I12
s(I6
I0
tp53
I0
s(I1
I4
tp54
I0
s(I11
I0
tp55
I0
s(I2
I3
tp56
I0
s(I10
I1
tp57
I397
s(I0
I4
tp58
I95
s(I1
I0
tp59
I0
s(I14
I2
tp60
I0
s(I5
I3
tp61
I4537
s(I0
I1
tp62
I55
s(I13
I1
tp63
I4
s(I8
I3
tp64
I21
s(I7
I0
tp65
I0
s(I15
I2
tp66
I0
s(I12
I0
tp67
I7
s(I9
I2
tp68
I918
s(I3
I4
tp69
I0
s(I6
I1
tp70
I0
s(I3
I1
tp71
I0
s(I11
I3
tp72
I0
s(I8
I2
tp73
I931
s(I1
I1
tp74
I0
s(I7
I4
tp75
I0
s(I2
I0
tp76
I0
s(I12
I4
tp77
I3
s(I4
I3
tp78
I975
s(I14
I3
tp79
I0
s(I8
I4
tp80
I46
s(I5
I2
tp81
I4476
s(I2
I4
tp82
I0
s(I13
I0
tp83
I3
s(I10
I2
tp84
I432
ssS'query_count'
p85
(dp86
(I7
I3
tp87
I0
s(I1
I3
tp88
I0
s(I12
I1
tp89
I0
s(I9
I1
tp90
I11
s(I3
I0
tp91
I0
s(I14
I4
tp92
I0
s(I11
I2
tp93
I0
s(I8
I0
tp94
I11
s(I3
I2
tp95
I0
s(I2
I1
tp96
I0
s(I15
I1
tp97
I0
s(I6
I2
tp98
I0
s(I14
I0
tp99
I0
s(I9
I4
tp100
I1
s(I4
I2
tp101
I4990
s(I5
I1
tp102
I4880
s(I0
I3
tp103
I5627
s(I10
I3
tp104
I402
s(I7
I2
tp105
I0
s(I4
I0
tp106
I4
s(I1
I2
tp107
I0
s(I12
I2
tp108
I9
s(I9
I0
tp109
I8
s(I3
I3
tp110
I0
s(I0
I2
tp111
I54
s(I13
I3
tp112
I6
s(I8
I1
tp113
I1
s(I4
I4
tp114
I93
s(I15
I0
tp115
I0
s(I6
I3
tp116
I0
s(I11
I4
tp117
I0
s(I14
I1
tp118
I0
s(I11
I1
tp119
I0
s(I5
I0
tp120
I1339
s(I2
I2
tp121
I0
s(I15
I4
tp122
I0
s(I10
I0
tp123
I229
s(I4
I1
tp124
I12
s(I13
I4
tp125
I1
s(I12
I3
tp126
I6
s(I6
I4
tp127
I0
s(I5
I4
tp128
I729
s(I0
I0
tp129
I14
s(I13
I2
tp130
I0
s(I10
I4
tp131
I138
s(I7
I1
tp132
I0
s(I15
I3
tp133
I0
s(I9
I3
tp134
I12
s(I6
I0
tp135
I0
s(I1
I4
tp136
I0
s(I11
I0
tp137
I0
s(I2
I3
tp138
I0
s(I10
I1
tp139
I397
s(I0
I4
tp140
I92
s(I1
I0
tp141
I0
s(I14
I2
tp142
I0
s(I5
I3
tp143
I4537
s(I0
I1
tp144
I52
s(I13
I1
tp145
I4
s(I8
I3
tp146
I16
s(I7
I0
tp147
I0
s(I15
I2
tp148
I0
s(I12
I0
tp149
I7
s(I9
I2
tp150
I916
s(I3
I4
tp151
I0
s(I6
I1
tp152
I0
s(I3
I1
tp153
I0
s(I11
I3
tp154
I0
s(I8
I2
tp155
I926
s(I1
I1
tp156
I0
s(I7
I4
tp157
I0
s(I2
I0
tp158
I0
s(I12
I4
tp159
I3
s(I4
I3
tp160
I946
s(I14
I3
tp161
I0
s(I8
I4
tp162
I46
s(I5
I2
tp163
I4476
s(I2
I4
tp164
I0
s(I13
I0
tp165
I3
s(I10
I2
tp166
I432
sssI1
(dp167
g3
(dp168
g5
I0
sg6
I0
sg7
I1
sg8
I11
sg9
I0
sg10
I0
sg11
I0
sg12
I11
sg13
I0
sg14
I0
sg15
I0
sg16
I0
sg17
I0
sg18
I1
sg19
I4969
sg20
I4848
sg21
I5976
sg22
I402
sg23
I0
sg24
I4
sg25
I0
sg26
I11
sg27
I8
sg28
I0
sg29
I63
sg30
I6
sg31
I1
sg32
I93
sg33
I0
sg34
I0
sg35
I0
sg36
I0
sg37
I0
sg38
I1330
sg39
I0
sg40
I0
sg41
I229
sg42
I12
sg43
I2
sg44
I6
sg45
I0
sg46
I728
sg47
I16
sg48
I0
sg49
I138
sg50
I0
sg51
I0
sg52
I12
sg53
I0
sg54
I0
sg55
I0
sg56
I0
sg57
I397
sg58
I95
sg59
I0
sg60
I0
sg61
I4518
sg62
I55
sg63
I4
sg64
I21
sg65
I0
sg66
I0
sg67
I7
sg68
I918
sg69
I0
sg70
I0
sg71
I0
sg72
I0
sg73
I931
sg74
I0
sg75
I0
sg76
I0
sg77
I3
sg78
I975
sg79
I0
sg80
I46
sg81
I4442
sg82
I0
sg83
I3
sg84
I432
ssg85
(dp169
g87
I0
sg88
I0
sg89
I0
sg90
I11
sg91
I0
sg92
I0
sg93
I0
sg94
I11
sg95
I0
sg96
I0
sg97
I0
sg98
I0
sg99
I0
sg100
I1
sg101
I4959
sg102
I4848
sg103
I5596
sg104
I402
sg105
I0
sg106
I4
sg107
I0
sg108
I9
sg109
I8
sg110
I0
sg111
I54
sg112
I6
sg113
I1
sg114
I93
sg115
I0
sg116
I0
sg117
I0
sg118
I0
sg119
I0
sg120
I1330
sg121
I0
sg122
I0
sg123
I229
sg124
I12
sg125
I1
sg126
I6
sg127
I0
sg128
I726
sg129
I14
sg130
I0
sg131
I138
sg132
I0
sg133
I0
sg134
I12
sg135
I0
sg136
I0
sg137
I0
sg138
I0
sg139
I397
sg140
I92
sg141
I0
sg142
I0
sg143
I4518
sg144
I52
sg145
I4
sg146
I16
sg147
I0
sg148
I0
sg149
I7
sg150
I916
sg151
I0
sg152
I0
sg153
I0
sg154
I0
sg155
I926
sg156
I0
sg157
I0
sg158
I0
sg159
I3
sg160
I946
sg161
I0
sg162
I46
sg163
I4442
sg164
I0
sg165
I3
sg166
I432
sssI2
(dp170
g3
(dp171
g5
I0
sg6
I0
sg7
I1
sg8
I11
sg9
I0
sg10
I0
sg11
I0
sg12
I11
sg13
I0
sg14
I0
sg15
I0
sg16
I0
sg17
I0
sg18
I1
sg19
I4970
sg20
I4848
sg21
I5977
sg22
I402
sg23
I0
sg24
I4
sg25
I0
sg26
I11
sg27
I8
sg28
I0
sg29
I63
sg30
I6
sg31
I1
sg32
I93
sg33
I0
sg34
I0
sg35
I0
sg36
I0
sg37
I0
sg38
I1331
sg39
I0
sg40
I0
sg41
I229
sg42
I12
sg43
I2
sg44
I6
sg45
I0
sg46
I728
sg47
I16
sg48
I0
sg49
I138
sg50
I0
sg51
I0
sg52
I12
sg53
I0
sg54
I0
sg55
I0
sg56
I0
sg57
I397
sg58
I95
sg59
I0
sg60
I0
sg61
I4518
sg62
I55
sg63
I4
sg64
I21
sg65
I0
sg66
I0
sg67
I7
sg68
I918
sg69
I0
sg70
I0
sg71
I0
sg72
I0
sg73
I931
sg74
I0
sg75
I0
sg76
I0
sg77
I3
sg78
I975
sg79
I0
sg80
I46
sg81
I4442
sg82
I0
sg83
I3
sg84
I432
ssg85
(dp172
g87
I0
sg88
I0
sg89
I0
sg90
I11
sg91
I0
sg92
I0
sg93
I0
sg94
I11
sg95
I0
sg96
I0
sg97
I0
sg98
I0
sg99
I0
sg100
I1
sg101
I4960
sg102
I4848
sg103
I5597
sg104
I402
sg105
I0
sg106
I4
sg107
I0
sg108
I9
sg109
I8
sg110
I0
sg111
I54
sg112
I6
sg113
I1
sg114
I93
sg115
I0
sg116
I0
sg117
I0
sg118
I0
sg119
I0
sg120
I1331
sg121
I0
sg122
I0
sg123
I229
sg124
I12
sg125
I1
sg126
I6
sg127
I0
sg128
I726
sg129
I14
sg130
I0
sg131
I138
sg132
I0
sg133
I0
sg134
I12
sg135
I0
sg136
I0
sg137
I0
sg138
I0
sg139
I397
sg140
I92
sg141
I0
sg142
I0
sg143
I4518
sg144
I52
sg145
I4
sg146
I16
sg147
I0
sg148
I0
sg149
I7
sg150
I916
sg151
I0
sg152
I0
sg153
I0
sg154
I0
sg155
I926
sg156
I0
sg157
I0
sg158
I0
sg159
I3
sg160
I946
sg161
I0
sg162
I46
sg163
I4442
sg164
I0
sg165
I3
sg166
I432
sssI4
(dp173
g3
(dp174
g5
I0
sg6
I0
sg7
I1
sg8
I11
sg9
I0
sg10
I0
sg11
I0
sg12
I11
sg13
I0
sg14
I0
sg15
I0
sg16
I0
sg17
I0
sg18
I1
sg19
I4972
sg20
I4852
sg21
I5979
sg22
I402
sg23
I0
sg24
I4
sg25
I0
sg26
I11
sg27
I8
sg28
I0
sg29
I63
sg30
I6
sg31
I1
sg32
I93
sg33
I0
sg34
I0
sg35
I0
sg36
I0
sg37
I0
sg38
I1331
sg39
I0
sg40
I0
sg41
I229
sg42
I12
sg43
I2
sg44
I6
sg45
I0
sg46
I728
sg47
I16
sg48
I0
sg49
I138
sg50
I0
sg51
I0
sg52
I12
sg53
I0
sg54
I0
sg55
I0
sg56
I0
sg57
I397
sg58
I95
sg59
I0
sg60
I0
sg61
I4522
sg62
I55
sg63
I4
sg64
I21
sg65
I0
sg66
I0
sg67
I7
sg68
I918
sg69
I0
sg70
I0
sg71
I0
sg72
I0
sg73
I931
sg74
I0
sg75
I0
sg76
I0
sg77
I3
sg78
I975
sg79
I0
sg80
I46
sg81
I4442
sg82
I0
sg83
I3
sg84
I432
ssg85
(dp175
g87
I0
sg88
I0
sg89
I0
sg90
I11
sg91
I0
sg92
I0
sg93
I0
sg94
I11
sg95
I0
sg96
I0
sg97
I0
sg98
I0
sg99
I0
sg100
I1
sg101
I4962
sg102
I4852
sg103
I5599
sg104
I402
sg105
I0
sg106
I4
sg107
I0
sg108
I9
sg109
I8
sg110
I0
sg111
I54
sg112
I6
sg113
I1
sg114
I93
sg115
I0
sg116
I0
sg117
I0
sg118
I0
sg119
I0
sg120
I1331
sg121
I0
sg122
I0
sg123
I229
sg124
I12
sg125
I1
sg126
I6
sg127
I0
sg128
I726
sg129
I14
sg130
I0
sg131
I138
sg132
I0
sg133
I0
sg134
I12
sg135
I0
sg136
I0
sg137
I0
sg138
I0
sg139
I397
sg140
I92
sg141
I0
sg142
I0
sg143
I4522
sg144
I52
sg145
I4
sg146
I16
sg147
I0
sg148
I0
sg149
I7
sg150
I916
sg151
I0
sg152
I0
sg153
I0
sg154
I0
sg155
I926
sg156
I0
sg157
I0
sg158
I0
sg159
I3
sg160
I946
sg161
I0
sg162
I46
sg163
I4442
sg164
I0
sg165
I3
sg166
I432
sssI8
(dp176
g3
(dp177
g5
I0
sg6
I0
sg7
I1
sg8
I11
sg9
I0
sg10
I0
sg11
I0
sg12
I11
sg13
I0
sg14
I0
sg15
I0
sg16
I0
sg17
I0
sg18
I1
sg19
I4976
sg20
I4856
sg21
I5983
sg22
I402
sg23
I0
sg24
I4
sg25
I0
sg26
I11
sg27
I8
sg28
I0
sg29
I63
sg30
I6
sg31
I1
sg32
I93
sg33
I0
sg34
I0
sg35
I0
sg36
I0
sg37
I0
sg38
I1333
sg39
I0
sg40
I0
sg41
I229
sg42
I12
sg43
I2
sg44
I6
sg45
I0
sg46
I728
sg47
I16
sg48
I0
sg49
I138
sg50
I0
sg51
I0
sg52
I12
sg53
I0
sg54
I0
sg55
I0
sg56
I0
sg57
I397
sg58
I95
sg59
I0
sg60
I0
sg61
I4526
sg62
I55
sg63
I4
sg64
I21
sg65
I0
sg66
I0
sg67
I7
sg68
I918
sg69
I0
sg70
I0
sg71
I0
sg72
I0
sg73
I931
sg74
I0
sg75
I0
sg76
I0
sg77
I3
sg78
I975
sg79
I0
sg80
I46
sg81
I4442
sg82
I0
sg83
I3
sg84
I432
ssg85
(dp178
g87
I0
sg88
I0
sg89
I0
sg90
I11
sg91
I0
sg92
I0
sg93
I0
sg94
I11
sg95
I0
sg96
I0
sg97
I0
sg98
I0
sg99
I0
sg100
I1
sg101
I4966
sg102
I4856
sg103
I5603
sg104
I402
sg105
I0
sg106
I4
sg107
I0
sg108
I9
sg109
I8
sg110
I0
sg111
I54
sg112
I6
sg113
I1
sg114
I93
sg115
I0
sg116
I0
sg117
I0
sg118
I0
sg119
I0
sg120
I1333
sg121
I0
sg122
I0
sg123
I229
sg124
I12
sg125
I1
sg126
I6
sg127
I0
sg128
I726
sg129
I14
sg130
I0
sg131
I138
sg132
I0
sg133
I0
sg134
I12
sg135
I0
sg136
I0
sg137
I0
sg138
I0
sg139
I397
sg140
I92
sg141
I0
sg142
I0
sg143
I4526
sg144
I52
sg145
I4
sg146
I16
sg147
I0
sg148
I0
sg149
I7
sg150
I916
sg151
I0
sg152
I0
sg153
I0
sg154
I0
sg155
I926
sg156
I0
sg157
I0
sg158
I0
sg159
I3
sg160
I946
sg161
I0
sg162
I46
sg163
I4442
sg164
I0
sg165
I3
sg166
I432
sssI64
(dp179
g3
(dp180
g5
I0
sg6
I0
sg7
I1
sg8
I11
sg9
I0
sg10
I0
sg11
I0
sg12
I11
sg13
I0
sg14
I0
sg15
I0
sg16
I0
sg17
I0
sg18
I1
sg19
I5032
sg20
I4909
sg21
I6039
sg22
I402
sg23
I0
sg24
I4
sg25
I0
sg26
I11
sg27
I8
sg28
I0
sg29
I63
sg30
I6
sg31
I1
sg32
I93
sg33
I0
sg34
I0
sg35
I0
sg36
I0
sg37
I0
sg38
I1345
sg39
I0
sg40
I0
sg41
I229
sg42
I12
sg43
I2
sg44
I6
sg45
I0
sg46
I737
sg47
I16
sg48
I0
sg49
I138
sg50
I0
sg51
I0
sg52
I12
sg53
I0
sg54
I0
sg55
I0
sg56
I0
sg57
I397
sg58
I95
sg59
I0
sg60
I0
sg61
I4568
sg62
I55
sg63
I4
sg64
I21
sg65
I0
sg66
I0
sg67
I7
sg68
I918
sg69
I0
sg70
I0
sg71
I0
sg72
I0
sg73
I931
sg74
I0
sg75
I0
sg76
I0
sg77
I3
sg78
I975
sg79
I0
sg80
I46
sg81
I4514
sg82
I0
sg83
I3
sg84
I432
ssg85
(dp181
g87
I0
sg88
I0
sg89
I0
sg90
I11
sg91
I0
sg92
I0
sg93
I0
sg94
I11
sg95
I0
sg96
I0
sg97
I0
sg98
I0
sg99
I0
sg100
I1
sg101
I5022
sg102
I4909
sg103
I5659
sg104
I402
sg105
I0
sg106
I4
sg107
I0
sg108
I9
sg109
I8
sg110
I0
sg111
I54
sg112
I6
sg113
I1
sg114
I93
sg115
I0
sg116
I0
sg117
I0
sg118
I0
sg119
I0
sg120
I1345
sg121
I0
sg122
I0
sg123
I229
sg124
I12
sg125
I1
sg126
I6
sg127
I0
sg128
I735
sg129
I14
sg130
I0
sg131
I138
sg132
I0
sg133
I0
sg134
I12
sg135
I0
sg136
I0
sg137
I0
sg138
I0
sg139
I397
sg140
I92
sg141
I0
sg142
I0
sg143
I4568
sg144
I52
sg145
I4
sg146
I16
sg147
I0
sg148
I0
sg149
I7
sg150
I916
sg151
I0
sg152
I0
sg153
I0
sg154
I0
sg155
I926
sg156
I0
sg157
I0
sg158
I0
sg159
I3
sg160
I946
sg161
I0
sg162
I46
sg163
I4514
sg164
I0
sg165
I3
sg166
I432
sssI128
(dp182
g3
(dp183
g5
I0
sg6
I0
sg7
I1
sg8
I11
sg9
I0
sg10
I0
sg11
I0
sg12
I11
sg13
I0
sg14
I0
sg15
I0
sg16
I0
sg17
I0
sg18
I1
sg19
I5096
sg20
I4962
sg21
I6103
sg22
I402
sg23
I0
sg24
I4
sg25
I0
sg26
I11
sg27
I8
sg28
I0
sg29
I63
sg30
I6
sg31
I1
sg32
I93
sg33
I0
sg34
I0
sg35
I0
sg36
I0
sg37
I0
sg38
I1359
sg39
I0
sg40
I0
sg41
I229
sg42
I12
sg43
I2
sg44
I6
sg45
I0
sg46
I751
sg47
I16
sg48
I0
sg49
I138
sg50
I0
sg51
I0
sg52
I12
sg53
I0
sg54
I0
sg55
I0
sg56
I0
sg57
I397
sg58
I95
sg59
I0
sg60
I0
sg61
I4635
sg62
I55
sg63
I4
sg64
I21
sg65
I0
sg66
I0
sg67
I7
sg68
I918
sg69
I0
sg70
I0
sg71
I0
sg72
I0
sg73
I931
sg74
I0
sg75
I0
sg76
I0
sg77
I3
sg78
I975
sg79
I0
sg80
I46
sg81
I4580
sg82
I0
sg83
I3
sg84
I432
ssg85
(dp184
g87
I0
sg88
I0
sg89
I0
sg90
I11
sg91
I0
sg92
I0
sg93
I0
sg94
I11
sg95
I0
sg96
I0
sg97
I0
sg98
I0
sg99
I0
sg100
I1
sg101
I5086
sg102
I4962
sg103
I5694
sg104
I402
sg105
I0
sg106
I4
sg107
I0
sg108
I9
sg109
I8
sg110
I0
sg111
I54
sg112
I6
sg113
I1
sg114
I93
sg115
I0
sg116
I0
sg117
I0
sg118
I0
sg119
I0
sg120
I1359
sg121
I0
sg122
I0
sg123
I229
sg124
I12
sg125
I1
sg126
I6
sg127
I0
sg128
I749
sg129
I14
sg130
I0
sg131
I138
sg132
I0
sg133
I0
sg134
I12
sg135
I0
sg136
I0
sg137
I0
sg138
I0
sg139
I397
sg140
I92
sg141
I0
sg142
I0
sg143
I4635
sg144
I52
sg145
I4
sg146
I16
sg147
I0
sg148
I0
sg149
I7
sg150
I916
sg151
I0
sg152
I0
sg153
I0
sg154
I0
sg155
I926
sg156
I0
sg157
I0
sg158
I0
sg159
I3
sg160
I946
sg161
I0
sg162
I46
sg163
I4580
sg164
I0
sg165
I3
sg166
I432
sssI16
(dp185
g3
(dp186
g5
I0
sg6
I0
sg7
I1
sg8
I11
sg9
I0
sg10
I0
sg11
I0
sg12
I11
sg13
I0
sg14
I0
sg15
I0
sg16
I0
sg17
I0
sg18
I1
sg19
I4984
sg20
I4864
sg21
I5991
sg22
I402
sg23
I0
sg24
I4
sg25
I0
sg26
I11
sg27
I8
sg28
I0
sg29
I63
sg30
I6
sg31
I1
sg32
I93
sg33
I0
sg34
I0
sg35
I0
sg36
I0
sg37
I0
sg38
I1335
sg39
I0
sg40
I0
sg41
I229
sg42
I12
sg43
I2
sg44
I6
sg45
I0
sg46
I729
sg47
I16
sg48
I0
sg49
I138
sg50
I0
sg51
I0
sg52
I12
sg53
I0
sg54
I0
sg55
I0
sg56
I0
sg57
I397
sg58
I95
sg59
I0
sg60
I0
sg61
I4530
sg62
I55
sg63
I4
sg64
I21
sg65
I0
sg66
I0
sg67
I7
sg68
I918
sg69
I0
sg70
I0
sg71
I0
sg72
I0
sg73
I931
sg74
I0
sg75
I0
sg76
I0
sg77
I3
sg78
I975
sg79
I0
sg80
I46
sg81
I4453
sg82
I0
sg83
I3
sg84
I432
ssg85
(dp187
g87
I0
sg88
I0
sg89
I0
sg90
I11
sg91
I0
sg92
I0
sg93
I0
sg94
I11
sg95
I0
sg96
I0
sg97
I0
sg98
I0
sg99
I0
sg100
I1
sg101
I4974
sg102
I4864
sg103
I5611
sg104
I402
sg105
I0
sg106
I4
sg107
I0
sg108
I9
sg109
I8
sg110
I0
sg111
I54
sg112
I6
sg113
I1
sg114
I93
sg115
I0
sg116
I0
sg117
I0
sg118
I0
sg119
I0
sg120
I1335
sg121
I0
sg122
I0
sg123
I229
sg124
I12
sg125
I1
sg126
I6
sg127
I0
sg128
I727
sg129
I14
sg130
I0
sg131
I138
sg132
I0
sg133
I0
sg134
I12
sg135
I0
sg136
I0
sg137
I0
sg138
I0
sg139
I397
sg140
I92
sg141
I0
sg142
I0
sg143
I4530
sg144
I52
sg145
I4
sg146
I16
sg147
I0
sg148
I0
sg149
I7
sg150
I916
sg151
I0
sg152
I0
sg153
I0
sg154
I0
sg155
I926
sg156
I0
sg157
I0
sg158
I0
sg159
I3
sg160
I946
sg161
I0
sg162
I46
sg163
I4453
sg164
I0
sg165
I3
sg166
I432
sss.