(dp1
I32
(dp2
S'visit_count'
p3
(dp4
(I0
I1
tp5
I6
s(I9
I0
tp6
I0
s(I0
I0
tp7
I271
s(I7
I0
tp8
I0
s(I9
I1
tp9
I0
s(I7
I1
tp10
I0
s(I8
I1
tp11
I0
s(I6
I1
tp12
I0
s(I3
I1
tp13
I8
s(I6
I0
tp14
I0
s(I2
I1
tp15
I6
s(I3
I0
tp16
I3
s(I5
I0
tp17
I0
s(I5
I1
tp18
I0
s(I8
I0
tp19
I0
s(I2
I0
tp20
I8
s(I1
I0
tp21
I0
s(I4
I1
tp22
I0
s(I1
I1
tp23
I12
s(I4
I0
tp24
I6
ssS'query_count'
p25
(dp26
(I0
I1
tp27
I3
s(I9
I0
tp28
I0
s(I0
I0
tp29
I10
s(I7
I0
tp30
I0
s(I9
I1
tp31
I0
s(I7
I1
tp32
I0
s(I8
I1
tp33
I0
s(I6
I1
tp34
I0
s(I3
I1
tp35
I4
s(I6
I0
tp36
I0
s(I2
I1
tp37
I4
s(I3
I0
tp38
I0
s(I5
I0
tp39
I0
s(I5
I1
tp40
I0
s(I8
I0
tp41
I0
s(I2
I0
tp42
I4
s(I1
I0
tp43
I0
s(I4
I1
tp44
I0
s(I1
I1
tp45
I5
s(I4
I0
tp46
I3
sssI1
(dp47
g3
(dp48
g5
I0
sg6
I0
sg7
I10
sg8
I0
sg9
I0
sg10
I0
sg11
I0
sg12
I0
sg13
I0
sg14
I0
sg15
I0
sg16
I0
sg17
I0
sg18
I0
sg19
I0
sg20
I0
sg21
I0
sg22
I0
sg23
I0
sg24
I0
ssg25
(dp49
g27
I0
sg28
I0
sg29
I10
sg30
I0
sg31
I0
sg32
I0
sg33
I0
sg34
I0
sg35
I0
sg36
I0
sg37
I0
sg38
I0
sg39
I0
sg40
I0
sg41
I0
sg42
I0
sg43
I0
sg44
I0
sg45
I0
sg46
I0
sssI2
(dp50
g3
(dp51
g5
I0
sg6
I0
sg7
I20
sg8
I0
sg9
I0
sg10
I0
sg11
I0
sg12
I0
sg13
I0
sg14
I0
sg15
I0
sg16
I0
sg17
I0
sg18
I0
sg19
I0
sg20
I0
sg21
I0
sg22
I0
sg23
I0
sg24
I0
ssg25
(dp52
g27
I0
sg28
I0
sg29
I10
sg30
I0
sg31
I0
sg32
I0
sg33
I0
sg34
I0
sg35
I0
sg36
I0
sg37
I0
sg38
I0
sg39
I0
sg40
I0
sg41
I0
sg42
I0
sg43
I0
sg44
I0
sg45
I0
sg46
I0
sssI4
(dp53
g3
(dp54
g5
I1
sg6
I0
sg7
I30
sg8
I0
sg9
I0
sg10
I0
sg11
I0
sg12
I0
sg13
I4
sg14
I0
sg15
I1
sg16
I0
sg17
I0
sg18
I0
sg19
I0
sg20
I0
sg21
I0
sg22
I0
sg23
I1
sg24
I3
ssg25
(dp55
g27
I0
sg28
I0
sg29
I10
sg30
I0
sg31
I0
sg32
I0
sg33
I0
sg34
I0
sg35
I4
sg36
I0
sg37
I0
sg38
I0
sg39
I0
sg40
I0
sg41
I0
sg42
I0
sg43
I0
sg44
I0
sg45
I0
sg46
I0
sssI1024
(dp56
g3
(dp57
g5
I1009
sg6
I4
sg7
I442
sg8
I11
sg9
I915
sg10
I924
sg11
I919
sg12
I933
sg13
I978
sg14
I14
sg15
I991
sg16
I43
sg17
I19
sg18
I948
sg19
I2
sg20
I48
sg21
I37
sg22
I953
sg23
I1018
sg24
I32
ssg25
(dp58
g27
I49
sg28
I3
sg29
I51
sg30
I8
sg31
I4
sg32
I8
sg33
I5
sg34
I14
sg35
I36
sg36
I10
sg37
I33
sg38
I33
sg39
I17
sg40
I20
sg41
I1
sg42
I33
sg43
I37
sg44
I19
sg45
I58
sg46
I23
sssI8
(dp59
g3
(dp60
g5
I2
sg6
I0
sg7
I69
sg8
I0
sg9
I0
sg10
I0
sg11
I0
sg12
I0
sg13
I4
sg14
I0
sg15
I1
sg16
I0
sg17
I0
sg18
I0
sg19
I0
sg20
I0
sg21
I0
sg22
I0
sg23
I1
sg24
I3
ssg25
(dp61
g27
I1
sg28
I0
sg29
I10
sg30
I0
sg31
I0
sg32
I0
sg33
I0
sg34
I0
sg35
I4
sg36
I0
sg37
I0
sg38
I0
sg39
I0
sg40
I0
sg41
I0
sg42
I0
sg43
I0
sg44
I0
sg45
I0
sg46
I0
sssI64
(dp62
g3
(dp63
g5
I31
sg6
I1
sg7
I422
sg8
I2
sg9
I0
sg10
I3
sg11
I1
sg12
I4
sg13
I23
sg14
I6
sg15
I32
sg16
I19
sg17
I7
sg18
I11
sg19
I1
sg20
I12
sg21
I10
sg22
I12
sg23
I31
sg24
I12
ssg25
(dp64
g27
I16
sg28
I0
sg29
I31
sg30
I0
sg31
I0
sg32
I2
sg33
I1
sg34
I2
sg35
I13
sg36
I4
sg37
I16
sg38
I12
sg39
I6
sg40
I5
sg41
I0
sg42
I4
sg43
I10
sg44
I5
sg45
I14
sg46
I6
sssI128
(dp65
g3
(dp66
g5
I109
sg6
I4
sg7
I442
sg8
I11
sg9
I27
sg10
I36
sg11
I31
sg12
I45
sg13
I82
sg14
I10
sg15
I91
sg16
I33
sg17
I18
sg18
I55
sg19
I2
sg20
I44
sg21
I32
sg22
I63
sg23
I119
sg24
I26
ssg25
(dp67
g27
I44
sg28
I3
sg29
I51
sg30
I8
sg31
I3
sg32
I8
sg33
I5
sg34
I14
sg35
I32
sg36
I6
sg37
I30
sg38
I25
sg39
I17
sg40
I20
sg41
I1
sg42
I32
sg43
I32
sg44
I18
sg45
I53
sg46
I17
sssI256
(dp68
g3
(dp69
g5
I241
sg6
I4
sg7
I442
sg8
I11
sg9
I152
sg10
I161
sg11
I156
sg12
I170
sg13
I211
sg14
I12
sg15
I218
sg16
I34
sg17
I19
sg18
I182
sg19
I2
sg20
I44
sg21
I37
sg22
I189
sg23
I246
sg24
I29
ssg25
(dp70
g27
I46
sg28
I3
sg29
I51
sg30
I8
sg31
I4
sg32
I8
sg33
I5
sg34
I14
sg35
I33
sg36
I8
sg37
I30
sg38
I25
sg39
I17
sg40
I20
sg41
I1
sg42
I32
sg43
I37
sg44
I18
sg45
I54
sg46
I20
sssI16
(dp71
g3
(dp72
g5
I3
sg6
I0
sg7
I140
sg8
I0
sg9
I0
sg10
I0
sg11
I0
sg12
I0
sg13
I4
sg14
I0
sg15
I1
sg16
I0
sg17
I0
sg18
I0
sg19
I0
sg20
I4
sg21
I0
sg22
I0
sg23
I5
sg24
I3
ssg25
(dp73
g27
I2
sg28
I0
sg29
I10
sg30
I0
sg31
I0
sg32
I0
sg33
I0
sg34
I0
sg35
I4
sg36
I0
sg37
I0
sg38
I0
sg39
I0
sg40
I0
sg41
I0
sg42
I4
sg43
I0
sg44
I0
sg45
I0
sg46
I0
sssI512
(dp74
g3
(dp75
g5
I497
sg6
I4
sg7
I442
sg8
I11
sg9
I407
sg10
I416
sg11
I411
sg12
I425
sg13
I466
sg14
I12
sg15
I477
sg16
I38
sg17
I19
sg18
I437
sg19
I2
sg20
I44
sg21
I37
sg22
I444
sg23
I502
sg24
I29
ssg25
(dp76
g27
I47
sg28
I3
sg29
I51
sg30
I8
sg31
I4
sg32
I8
sg33
I5
sg34
I14
sg35
I34
sg36
I8
sg37
I31
sg38
I29
sg39
I17
sg40
I20
sg41
I1
sg42
I32
sg43
I37
sg44
I18
sg45
I54
sg46
I20
sss.