(dp1
I32
(dp2
S'visit_count'
p3
(dp4
(I0
I1
tp5
I14
s(I9
I0
tp6
I19
s(I0
I0
tp7
I18
s(I7
I0
tp8
I1
s(I9
I1
tp9
I12
s(I7
I1
tp10
I31
s(I8
I1
tp11
I1
s(I6
I1
tp12
I16
s(I3
I1
tp13
I18
s(I6
I0
tp14
I16
s(I2
I1
tp15
I15
s(I3
I0
tp16
I14
s(I5
I0
tp17
I15
s(I5
I1
tp18
I17
s(I8
I0
tp19
I0
s(I2
I0
tp20
I17
s(I1
I0
tp21
I14
s(I4
I1
tp22
I18
s(I1
I1
tp23
I18
s(I4
I0
tp24
I14
ssS'query_count'
p25
(dp26
I0
I0
sI1
I0
sI2
I0
sI3
I0
sI4
I0
sI5
I0
sI6
I0
sI7
I0
sI8
I0
sI9
I1
sssI1
(dp27
g3
(dp28
g5
I1
sg6
I1
sg7
I0
sg8
I0
sg9
I0
sg10
I1
sg11
I0
sg12
I1
sg13
I1
sg14
I0
sg15
I0
sg16
I0
sg17
I0
sg18
I1
sg19
I0
sg20
I1
sg21
I0
sg22
I0
sg23
I1
sg24
I1
ssg25
(dp29
I0
I0
sI1
I0
sI2
I0
sI3
I0
sI4
I0
sI5
I0
sI6
I0
sI7
I0
sI8
I0
sI9
I0
sssI2
(dp30
g3
(dp31
g5
I1
sg6
I1
sg7
I1
sg8
I0
sg9
I1
sg10
I2
sg11
I0
sg12
I2
sg13
I1
sg14
I0
sg15
I1
sg16
I1
sg17
I1
sg18
I1
sg19
I0
sg20
I1
sg21
I1
sg22
I1
sg23
I1
sg24
I1
ssg25
(dp32
I0
I0
sI1
I0
sI2
I0
sI3
I0
sI4
I0
sI5
I0
sI6
I0
sI7
I0
sI8
I0
sI9
I0
sssI4
(dp33
g3
(dp34
g5
I1
sg6
I2
sg7
I3
sg8
I0
sg9
I2
sg10
I4
sg11
I0
sg12
I3
sg13
I3
sg14
I1
sg15
I3
sg16
I1
sg17
I2
sg18
I2
sg19
I0
sg20
I1
sg21
I3
sg22
I2
sg23
I1
sg24
I2
ssg25
(dp35
I0
I0
sI1
I0
sI2
I0
sI3
I0
sI4
I0
sI5
I0
sI6
I0
sI7
I0
sI8
I0
sI9
I0
sssI1024
(dp36
g3
(dp37
g5
I529
sg6
I501
sg7
I495
sg8
I2
sg9
I521
sg10
I1022
sg11
I1
sg12
I517
sg13
I487
sg14
I507
sg15
I496
sg16
I537
sg17
I512
sg18
I512
sg19
I1
sg20
I528
sg21
I502
sg22
I512
sg23
I522
sg24
I512
ssg25
(dp38
I0
I0
sI1
I0
sI2
I0
sI3
I0
sI4
I0
sI5
I0
sI6
I0
sI7
I0
sI8
I1
sI9
I6
sssI8
(dp39
g3
(dp40
g5
I3
sg6
I4
sg7
I5
sg8
I1
sg9
I3
sg10
I7
sg11
I1
sg12
I5
sg13
I6
sg14
I3
sg15
I4
sg16
I2
sg17
I6
sg18
I2
sg19
I0
sg20
I4
sg21
I5
sg22
I5
sg23
I3
sg24
I3
ssg25
(dp41
I0
I0
sI1
I0
sI2
I0
sI3
I0
sI4
I0
sI5
I0
sI6
I0
sI7
I0
sI8
I0
sI9
I1
sssI64
(dp42
g3
(dp43
g5
I29
sg6
I36
sg7
I35
sg8
I1
sg9
I27
sg10
I63
sg11
I1
sg12
I33
sg13
I33
sg14
I31
sg15
I30
sg16
I31
sg17
I27
sg18
I37
sg19
I0
sg20
I34
sg21
I36
sg22
I29
sg23
I28
sg24
I35
ssg25
(dp44
I0
I0
sI1
I0
sI2
I0
sI3
I0
sI4
I0
sI5
I0
sI6
I0
sI7
I0
sI8
I0
sI9
I1
sssI128
(dp45
g3
(dp46
g5
I64
sg6
I67
sg7
I64
sg8
I2
sg9
I59
sg10
I126
sg11
I1
sg12
I66
sg13
I59
sg14
I62
sg15
I68
sg16
I69
sg17
I60
sg18
I68
sg19
I1
sg20
I60
sg21
I74
sg22
I66
sg23
I54
sg24
I62
ssg25
(dp47
I0
I0
sI1
I0
sI2
I0
sI3
I0
sI4
I0
sI5
I0
sI6
I0
sI7
I0
sI8
I1
sI9
I2
sssI256
(dp48
g3
(dp49
g5
I135
sg6
I121
sg7
I121
sg8
I2
sg9
I133
sg10
I254
sg11
I1
sg12
I145
sg13
I114
sg14
I111
sg15
I128
sg16
I142
sg17
I126
sg18
I130
sg19
I1
sg20
I128
sg21
I135
sg22
I133
sg23
I121
sg24
I123
ssg25
(dp50
I0
I0
sI1
I0
sI2
I0
sI3
I0
sI4
I0
sI5
I0
sI6
I0
sI7
I0
sI8
I1
sI9
I2
sssI16
(dp51
g3
(dp52
g5
I7
sg6
I11
sg7
I9
sg8
I1
sg9
I4
sg10
I15
sg11
I1
sg12
I10
sg13
I8
sg14
I6
sg15
I7
sg16
I8
sg17
I9
sg18
I7
sg19
I0
sg20
I9
sg21
I8
sg22
I8
sg23
I8
sg24
I8
ssg25
(dp53
I0
I0
sI1
I0
sI2
I0
sI3
I0
sI4
I0
sI5
I0
sI6
I0
sI7
I0
sI8
I0
sI9
I1
sssI512
(dp54
g3
(dp55
g5
I275
sg6
I246
sg7
I237
sg8
I2
sg9
I264
sg10
I510
sg11
I1
sg12
I273
sg13
I227
sg14
I239
sg15
I255
sg16
I285
sg17
I257
sg18
I255
sg19
I1
sg20
I257
sg21
I250
sg22
I258
sg23
I262
sg24
I254
ssg25
(dp56
I0
I0
sI1
I0
sI2
I0
sI3
I0
sI4
I0
sI5
I0
sI6
I0
sI7
I0
sI8
I1
sI9
I4
sss.