(dp1
I32
(dp2
S'visit_count'
p3
(dp4
(I0
I1
tp5
I47
s(I9
I0
tp6
I1
s(I0
I0
tp7
I20
s(I7
I0
tp8
I4
s(I9
I1
tp9
I8
s(I7
I1
tp10
I13
s(I8
I1
tp11
I9
s(I6
I1
tp12
I15
s(I3
I1
tp13
I27
s(I6
I0
tp14
I2
s(I2
I1
tp15
I37
s(I3
I0
tp16
I20
s(I5
I0
tp17
I5
s(I5
I1
tp18
I17
s(I8
I0
tp19
I2
s(I2
I0
tp20
I8
s(I1
I0
tp21
I21
s(I4
I1
tp22
I20
s(I1
I1
tp23
I34
s(I4
I0
tp24
I10
ssS'query_count'
p25
(dp26
(I0
I1
tp27
I25
s(I9
I0
tp28
I1
s(I0
I0
tp29
I20
s(I7
I0
tp30
I3
s(I9
I1
tp31
I3
s(I7
I1
tp32
I6
s(I8
I1
tp33
I4
s(I6
I1
tp34
I7
s(I3
I1
tp35
I13
s(I6
I0
tp36
I1
s(I2
I1
tp37
I18
s(I3
I0
tp38
I14
s(I5
I0
tp39
I5
s(I5
I1
tp40
I7
s(I8
I0
tp41
I2
s(I2
I0
tp42
I4
s(I1
I0
tp43
I15
s(I4
I1
tp44
I10
s(I1
I1
tp45
I14
s(I4
I0
tp46
I8
sssI1
(dp47
g3
(dp48
g5
I0
sg6
I0
sg7
I10
sg8
I0
sg9
I0
sg10
I0
sg11
I0
sg12
I0
sg13
I0
sg14
I0
sg15
I0
sg16
I0
sg17
I0
sg18
I0
sg19
I0
sg20
I0
sg21
I0
sg22
I0
sg23
I0
sg24
I0
ssg25
(dp49
g27
I0
sg28
I0
sg29
I10
sg30
I0
sg31
I0
sg32
I0
sg33
I0
sg34
I0
sg35
I0
sg36
I0
sg37
I0
sg38
I0
sg39
I0
sg40
I0
sg41
I0
sg42
I0
sg43
I0
sg44
I0
sg45
I0
sg46
I0
sssI2
(dp50
g3
(dp51
g5
I0
sg6
I0
sg7
I20
sg8
I0
sg9
I0
sg10
I0
sg11
I0
sg12
I0
sg13
I0
sg14
I0
sg15
I0
sg16
I0
sg17
I0
sg18
I0
sg19
I0
sg20
I0
sg21
I0
sg22
I0
sg23
I0
sg24
I0
ssg25
(dp52
g27
I0
sg28
I0
sg29
I20
sg30
I0
sg31
I0
sg32
I0
sg33
I0
sg34
I0
sg35
I0
sg36
I0
sg37
I0
sg38
I0
sg39
I0
sg40
I0
sg41
I0
sg42
I0
sg43
I0
sg44
I0
sg45
I0
sg46
I0
sssI4
(dp53
g3
(dp54
g5
I2
sg6
I0
sg7
I20
sg8
I0
sg9
I0
sg10
I0
sg11
I0
sg12
I0
sg13
I1
sg14
I2
sg15
I5
sg16
I4
sg17
I0
sg18
I3
sg19
I0
sg20
I0
sg21
I0
sg22
I1
sg23
I2
sg24
I0
ssg25
(dp55
g27
I1
sg28
I0
sg29
I20
sg30
I0
sg31
I0
sg32
I0
sg33
I0
sg34
I0
sg35
I1
sg36
I1
sg37
I1
sg38
I1
sg39
I0
sg40
I1
sg41
I0
sg42
I0
sg43
I0
sg44
I1
sg45
I1
sg46
I0
sssI1024
(dp56
g3
(dp57
g5
I1044
sg6
I1
sg7
I50
sg8
I9
sg9
I983
sg10
I989
sg11
I984
sg12
I995
sg13
I1011
sg14
I8
sg15
I1027
sg16
I29
sg17
I7
sg18
I1002
sg19
I3
sg20
I20
sg21
I32
sg22
I1001
sg23
I1032
sg24
I13
ssg25
(dp58
g27
I53
sg28
I1
sg29
I50
sg30
I7
sg31
I40
sg32
I41
sg33
I40
sg34
I41
sg35
I45
sg36
I7
sg37
I46
sg38
I23
sg39
I7
sg40
I42
sg41
I3
sg42
I16
sg43
I25
sg44
I42
sg45
I50
sg46
I11
sssI8
(dp59
g3
(dp60
g5
I13
sg6
I1
sg7
I20
sg8
I0
sg9
I0
sg10
I1
sg11
I1
sg12
I1
sg13
I2
sg14
I2
sg15
I10
sg16
I8
sg17
I0
sg18
I4
sg19
I0
sg20
I1
sg21
I8
sg22
I2
sg23
I6
sg24
I0
ssg25
(dp61
g27
I7
sg28
I1
sg29
I20
sg30
I0
sg31
I0
sg32
I1
sg33
I1
sg34
I1
sg35
I1
sg36
I1
sg37
I5
sg38
I5
sg39
I0
sg40
I1
sg41
I0
sg42
I0
sg43
I5
sg44
I1
sg45
I2
sg46
I0
sssI64
(dp62
g3
(dp63
g5
I78
sg6
I1
sg7
I30
sg8
I6
sg9
I36
sg10
I41
sg11
I37
sg12
I45
sg13
I57
sg14
I4
sg15
I71
sg16
I24
sg17
I5
sg18
I49
sg19
I2
sg20
I8
sg21
I21
sg22
I50
sg23
I65
sg24
I10
ssg25
(dp64
g27
I30
sg28
I1
sg29
I30
sg30
I4
sg31
I9
sg32
I12
sg33
I10
sg34
I12
sg35
I18
sg36
I3
sg37
I26
sg38
I18
sg39
I5
sg40
I12
sg41
I2
sg42
I4
sg43
I15
sg44
I15
sg45
I19
sg46
I8
sssI128
(dp65
g3
(dp66
g5
I145
sg6
I1
sg7
I40
sg8
I6
sg9
I97
sg10
I102
sg11
I98
sg12
I106
sg13
I119
sg14
I6
sg15
I133
sg16
I24
sg17
I6
sg18
I112
sg19
I2
sg20
I8
sg21
I26
sg22
I112
sg23
I127
sg24
I10
ssg25
(dp67
g27
I38
sg28
I1
sg29
I40
sg30
I4
sg31
I19
sg32
I21
sg33
I20
sg34
I21
sg35
I26
sg36
I5
sg37
I32
sg38
I18
sg39
I6
sg40
I23
sg41
I2
sg42
I4
sg43
I20
sg44
I23
sg45
I27
sg46
I8
sssI256
(dp68
g3
(dp69
g5
I272
sg6
I1
sg7
I50
sg8
I7
sg9
I219
sg10
I225
sg11
I220
sg12
I229
sg13
I246
sg14
I8
sg15
I258
sg16
I25
sg17
I7
sg18
I237
sg19
I3
sg20
I16
sg21
I27
sg22
I236
sg23
I261
sg24
I13
ssg25
(dp70
g27
I40
sg28
I1
sg29
I50
sg30
I5
sg31
I24
sg32
I26
sg33
I25
sg34
I26
sg35
I33
sg36
I7
sg37
I34
sg38
I19
sg39
I7
sg40
I28
sg41
I3
sg42
I12
sg43
I20
sg44
I28
sg45
I33
sg46
I11
sssI16
(dp71
g3
(dp72
g5
I27
sg6
I1
sg7
I20
sg8
I4
sg9
I0
sg10
I3
sg11
I1
sg12
I6
sg13
I8
sg14
I2
sg15
I23
sg16
I18
sg17
I0
sg18
I7
sg19
I1
sg20
I2
sg21
I16
sg22
I5
sg23
I13
sg24
I3
ssg25
(dp73
g27
I14
sg28
I1
sg29
I20
sg30
I3
sg31
I0
sg32
I1
sg33
I1
sg34
I3
sg35
I3
sg36
I1
sg37
I13
sg38
I13
sg39
I0
sg40
I2
sg41
I1
sg42
I0
sg43
I10
sg44
I2
sg45
I4
sg46
I2
sssI512
(dp74
g3
(dp75
g5
I528
sg6
I1
sg7
I50
sg8
I9
sg9
I472
sg10
I478
sg11
I473
sg12
I484
sg13
I500
sg14
I8
sg15
I516
sg16
I29
sg17
I7
sg18
I491
sg19
I3
sg20
I20
sg21
I27
sg22
I490
sg23
I521
sg24
I13
ssg25
(dp76
g27
I53
sg28
I1
sg29
I50
sg30
I7
sg31
I40
sg32
I41
sg33
I40
sg34
I41
sg35
I45
sg36
I7
sg37
I46
sg38
I23
sg39
I7
sg40
I42
sg41
I3
sg42
I16
sg43
I20
sg44
I42
sg45
I50
sg46
I11
sss.