(dp1
I1000
(dp2
(I7
I3
tp3
I0
s(I1
I3
tp4
I0
s(I12
I1
tp5
I0
s(I3
I0
tp6
I4
s(I14
I4
tp7
I0
s(I13
I4
tp8
I0
s(I8
I0
tp9
I5
s(I15
I1
tp10
I0
s(I6
I2
tp11
I1
s(I4
I0
tp12
I6
s(I9
I0
tp13
I4
s(I14
I1
tp14
I0
s(I5
I0
tp15
I4
s(I0
I4
tp16
I7
s(I15
I4
tp17
I0
s(I10
I0
tp18
I3
s(I1
I1
tp19
I6
s(I12
I3
tp20
I4
s(I3
I2
tp21
I4
s(I13
I2
tp22
I0
s(I8
I2
tp23
I5
s(I15
I3
tp24
I0
s(I9
I3
tp25
I2
s(I6
I0
tp26
I4
s(I1
I4
tp27
I0
s(I11
I0
tp28
I2
s(I2
I3
tp29
I2
s(I4
I2
tp30
I12
s(I14
I2
tp31
I0
s(I5
I3
tp32
I6
s(I0
I1
tp33
I7
s(I7
I0
tp34
I0
s(I12
I0
tp35
I4
s(I3
I1
tp36
I0
s(I3
I4
tp37
I0
s(I2
I4
tp38
I0
s(I13
I0
tp39
I3
s(I8
I4
tp40
I5
s(I9
I1
tp41
I2
s(I11
I2
tp42
I0
s(I2
I1
tp43
I0
s(I14
I0
tp44
I0
s(I9
I4
tp45
I2
s(I5
I1
tp46
I1
s(I0
I3
tp47
I3905
s(I10
I3
tp48
I1
s(I7
I2
tp49
I3
s(I1
I2
tp50
I3
s(I12
I2
tp51
I0
s(I3
I3
tp52
I0
s(I13
I3
tp53
I3
s(I8
I1
tp54
I3
s(I4
I4
tp55
I6
s(I15
I0
tp56
I0
s(I6
I3
tp57
I1
s(I11
I1
tp58
I0
s(I2
I2
tp59
I2
s(I4
I1
tp60
I2913
s(I6
I4
tp61
I0
s(I5
I4
tp62
I3
s(I0
I0
tp63
I7
s(I11
I4
tp64
I0
s(I10
I4
tp65
I0
s(I7
I1
tp66
I0
s(I10
I1
tp67
I0
s(I1
I0
tp68
I6
s(I13
I1
tp69
I0
s(I8
I3
tp70
I3
s(I15
I2
tp71
I0
s(I9
I2
tp72
I2
s(I6
I1
tp73
I2
s(I11
I3
tp74
I0
s(I7
I4
tp75
I0
s(I2
I0
tp76
I5
s(I12
I4
tp77
I4
s(I4
I3
tp78
I11
s(I14
I3
tp79
I2
s(I5
I2
tp80
I4
s(I0
I2
tp81
I5
s(I10
I2
tp82
I1
ss.