(dp1
I32
(dp2
S'visit_count'
p3
(dp4
(I7
I3
tp5
I0
s(I1
I3
tp6
I3
s(I12
I1
tp7
I0
s(I9
I1
tp8
I0
s(I3
I0
tp9
I2
s(I14
I4
tp10
I0
s(I11
I2
tp11
I0
s(I8
I0
tp12
I3
s(I3
I2
tp13
I2
s(I2
I1
tp14
I4
s(I15
I1
tp15
I0
s(I6
I2
tp16
I1
s(I14
I0
tp17
I0
s(I9
I4
tp18
I0
s(I4
I2
tp19
I14
s(I5
I1
tp20
I0
s(I0
I3
tp21
I23
s(I10
I3
tp22
I2
s(I7
I2
tp23
I1
s(I4
I0
tp24
I3
s(I1
I2
tp25
I5
s(I12
I2
tp26
I1
s(I9
I0
tp27
I0
s(I3
I3
tp28
I0
s(I0
I2
tp29
I8
s(I13
I3
tp30
I0
s(I8
I1
tp31
I0
s(I4
I4
tp32
I2
s(I15
I0
tp33
I2
s(I6
I3
tp34
I4
s(I11
I4
tp35
I0
s(I14
I1
tp36
I0
s(I11
I1
tp37
I0
s(I5
I0
tp38
I8
s(I2
I2
tp39
I3
s(I15
I4
tp40
I2
s(I10
I0
tp41
I4
s(I4
I1
tp42
I0
s(I13
I4
tp43
I0
s(I12
I3
tp44
I0
s(I6
I4
tp45
I0
s(I5
I4
tp46
I0
s(I0
I0
tp47
I1
s(I13
I2
tp48
I1
s(I10
I4
tp49
I0
s(I7
I1
tp50
I0
s(I15
I3
tp51
I1
s(I9
I3
tp52
I1
s(I6
I0
tp53
I0
s(I1
I4
tp54
I0
s(I11
I0
tp55
I0
s(I2
I3
tp56
I0
s(I10
I1
tp57
I0
s(I0
I4
tp58
I1
s(I1
I0
tp59
I0
s(I14
I2
tp60
I3
s(I5
I3
tp61
I4
s(I0
I1
tp62
I0
s(I13
I1
tp63
I0
s(I8
I3
tp64
I1
s(I7
I0
tp65
I1
s(I15
I2
tp66
I1
s(I12
I0
tp67
I0
s(I9
I2
tp68
I5
s(I3
I4
tp69
I0
s(I6
I1
tp70
I0
s(I3
I1
tp71
I1
s(I11
I3
tp72
I3
s(I8
I2
tp73
I2
s(I1
I1
tp74
I0
s(I7
I4
tp75
I0
s(I2
I0
tp76
I2
s(I12
I4
tp77
I0
s(I4
I3
tp78
I6
s(I14
I3
tp79
I0
s(I8
I4
tp80
I1
s(I5
I2
tp81
I5
s(I2
I4
tp82
I0
s(I13
I0
tp83
I1
s(I10
I2
tp84
I3
ssS'query_count'
p85
(dp86
I0
I28
sI1
I8
sI2
I9
sI3
I5
sI4
I21
sI5
I16
sI6
I5
sI7
I2
sI8
I5
sI9
I6
sI10
I8
sI11
I2
sI12
I1
sI13
I2
sI14
I3
sI15
I6
sssI1
(dp87
g3
(dp88
g5
I0
sg6
I0
sg7
I0
sg8
I0
sg9
I0
sg10
I0
sg11
I0
sg12
I0
sg13
I0
sg14
I0
sg15
I0
sg16
I0
sg17
I0
sg18
I0
sg19
I1
sg20
I0
sg21
I1
sg22
I0
sg23
I0
sg24
I0
sg25
I0
sg26
I0
sg27
I0
sg28
I0
sg29
I0
sg30
I0
sg31
I0
sg32
I0
sg33
I0
sg34
I1
sg35
I0
sg36
I0
sg37
I0
sg38
I0
sg39
I0
sg40
I1
sg41
I0
sg42
I0
sg43
I0
sg44
I0
sg45
I0
sg46
I0
sg47
I0
sg48
I0
sg49
I0
sg50
I0
sg51
I0
sg52
I0
sg53
I0
sg54
I0
sg55
I0
sg56
I0
sg57
I0
sg58
I0
sg59
I0
sg60
I0
sg61
I0
sg62
I0
sg63
I0
sg64
I0
sg65
I0
sg66
I0
sg67
I0
sg68
I0
sg69
I0
sg70
I0
sg71
I0
sg72
I1
sg73
I0
sg74
I0
sg75
I0
sg76
I0
sg77
I0
sg78
I0
sg79
I0
sg80
I0
sg81
I1
sg82
I0
sg83
I0
sg84
I1
ssg85
(dp89
I0
I0
sI1
I0
sI2
I0
sI3
I0
sI4
I0
sI5
I0
sI6
I1
sI7
I0
sI8
I0
sI9
I0
sI10
I0
sI11
I0
sI12
I0
sI13
I0
sI14
I0
sI15
I1
sssI2
(dp90
g3
(dp91
g5
I0
sg6
I1
sg7
I0
sg8
I0
sg9
I0
sg10
I0
sg11
I0
sg12
I0
sg13
I0
sg14
I0
sg15
I0
sg16
I1
sg17
I0
sg18
I0
sg19
I1
sg20
I0
sg21
I1
sg22
I0
sg23
I1
sg24
I0
sg25
I0
sg26
I0
sg27
I0
sg28
I0
sg29
I1
sg30
I0
sg31
I0
sg32
I0
sg33
I0
sg34
I1
sg35
I0
sg36
I0
sg37
I0
sg38
I0
sg39
I0
sg40
I1
sg41
I0
sg42
I0
sg43
I0
sg44
I0
sg45
I0
sg46
I0
sg47
I0
sg48
I0
sg49
I0
sg50
I0
sg51
I0
sg52
I0
sg53
I0
sg54
I0
sg55
I0
sg56
I0
sg57
I0
sg58
I0
sg59
I0
sg60
I0
sg61
I0
sg62
I0
sg63
I0
sg64
I0
sg65
I1
sg66
I0
sg67
I0
sg68
I0
sg69
I0
sg70
I0
sg71
I0
sg72
I1
sg73
I0
sg74
I0
sg75
I0
sg76
I0
sg77
I0
sg78
I0
sg79
I0
sg80
I0
sg81
I2
sg82
I0
sg83
I0
sg84
I1
ssg85
(dp92
I0
I1
sI1
I1
sI2
I0
sI3
I0
sI4
I0
sI5
I1
sI6
I2
sI7
I2
sI8
I0
sI9
I0
sI10
I0
sI11
I0
sI12
I0
sI13
I0
sI14
I0
sI15
I1
sssI4
(dp93
g3
(dp94
g5
I0
sg6
I1
sg7
I0
sg8
I0
sg9
I1
sg10
I0
sg11
I0
sg12
I0
sg13
I0
sg14
I0
sg15
I0
sg16
I1
sg17
I0
sg18
I0
sg19
I1
sg20
I0
sg21
I2
sg22
I0
sg23
I1
sg24
I0
sg25
I1
sg26
I1
sg27
I0
sg28
I0
sg29
I2
sg30
I0
sg31
I0
sg32
I0
sg33
I0
sg34
I1
sg35
I0
sg36
I0
sg37
I0
sg38
I0
sg39
I1
sg40
I1
sg41
I0
sg42
I0
sg43
I0
sg44
I0
sg45
I0
sg46
I0
sg47
I0
sg48
I1
sg49
I0
sg50
I0
sg51
I1
sg52
I0
sg53
I0
sg54
I0
sg55
I0
sg56
I0
sg57
I0
sg58
I0
sg59
I0
sg60
I1
sg61
I0
sg62
I0
sg63
I0
sg64
I1
sg65
I1
sg66
I0
sg67
I0
sg68
I0
sg69
I0
sg70
I0
sg71
I0
sg72
I1
sg73
I0
sg74
I0
sg75
I0
sg76
I0
sg77
I0
sg78
I1
sg79
I0
sg80
I0
sg81
I2
sg82
I0
sg83
I0
sg84
I1
ssg85
(dp95
I0
I2
sI1
I2
sI2
I1
sI3
I1
sI4
I1
sI5
I1
sI6
I2
sI7
I2
sI8
I1
sI9
I0
sI10
I0
sI11
I0
sI12
I1
sI13
I1
sI14
I1
sI15
I2
sssI1024
(dp96
g3
(dp97
g5
I0
sg6
I676
sg7
I0
sg8
I0
sg9
I4
sg10
I0
sg11
I0
sg12
I7
sg13
I3
sg14
I5
sg15
I4
sg16
I1
sg17
I1
sg18
I0
sg19
I303
sg20
I0
sg21
I324
sg22
I24
sg23
I1
sg24
I3
sg25
I23
sg26
I1
sg27
I0
sg28
I2
sg29
I699
sg30
I5
sg31
I0
sg32
I2
sg33
I7
sg34
I540
sg35
I0
sg36
I0
sg37
I0
sg38
I18
sg39
I7
sg40
I9
sg41
I946
sg42
I0
sg43
I0
sg44
I0
sg45
I0
sg46
I0
sg47
I1
sg48
I2
sg49
I0
sg50
I0
sg51
I7
sg52
I4
sg53
I0
sg54
I0
sg55
I0
sg56
I12
sg57
I0
sg58
I1
sg59
I0
sg60
I25
sg61
I432
sg62
I0
sg63
I1
sg64
I2
sg65
I2
sg66
I5
sg67
I1
sg68
I437
sg69
I0
sg70
I0
sg71
I5
sg72
I7
sg73
I9
sg74
I0
sg75
I0
sg76
I4
sg77
I0
sg78
I18
sg79
I0
sg80
I2
sg81
I529
sg82
I0
sg83
I1
sg84
I7
ssg85
(dp98
I0
I1020
sI1
I699
sI2
I28
sI3
I14
sI4
I322
sI5
I978
sI6
I541
sI7
I3
sI8
I18
sI9
I441
sI10
I976
sI11
I6
sI12
I2
sI13
I9
sI14
I26
sI15
I32
sssI8
(dp99
g3
(dp100
g5
I0
sg6
I1
sg7
I0
sg8
I0
sg9
I1
sg10
I0
sg11
I0
sg12
I1
sg13
I0
sg14
I0
sg15
I0
sg16
I1
sg17
I0
sg18
I0
sg19
I1
sg20
I0
sg21
I5
sg22
I0
sg23
I1
sg24
I2
sg25
I1
sg26
I1
sg27
I0
sg28
I0
sg29
I2
sg30
I0
sg31
I0
sg32
I1
sg33
I0
sg34
I1
sg35
I0
sg36
I0
sg37
I0
sg38
I0
sg39
I1
sg40
I1
sg41
I0
sg42
I0
sg43
I0
sg44
I0
sg45
I0
sg46
I0
sg47
I1
sg48
I1
sg49
I0
sg50
I0
sg51
I1
sg52
I0
sg53
I0
sg54
I0
sg55
I0
sg56
I0
sg57
I0
sg58
I1
sg59
I0
sg60
I1
sg61
I0
sg62
I0
sg63
I0
sg64
I1
sg65
I1
sg66
I0
sg67
I0
sg68
I0
sg69
I0
sg70
I0
sg71
I0
sg72
I1
sg73
I0
sg74
I0
sg75
I0
sg76
I0
sg77
I0
sg78
I2
sg79
I0
sg80
I0
sg81
I2
sg82
I0
sg83
I0
sg84
I1
ssg85
(dp101
I0
I5
sI1
I2
sI2
I1
sI3
I1
sI4
I2
sI5
I1
sI6
I2
sI7
I2
sI8
I2
sI9
I0
sI10
I0
sI11
I0
sI12
I1
sI13
I1
sI14
I1
sI15
I2
sssI64
(dp102
g3
(dp103
g5
I0
sg6
I15
sg7
I0
sg8
I0
sg9
I3
sg10
I0
sg11
I0
sg12
I4
sg13
I2
sg14
I4
sg15
I1
sg16
I1
sg17
I0
sg18
I0
sg19
I31
sg20
I0
sg21
I42
sg22
I5
sg23
I1
sg24
I3
sg25
I6
sg26
I1
sg27
I0
sg28
I0
sg29
I21
sg30
I2
sg31
I0
sg32
I2
sg33
I3
sg34
I5
sg35
I0
sg36
I0
sg37
I0
sg38
I14
sg39
I4
sg40
I3
sg41
I22
sg42
I0
sg43
I0
sg44
I0
sg45
I0
sg46
I0
sg47
I1
sg48
I2
sg49
I0
sg50
I0
sg51
I3
sg52
I3
sg53
I0
sg54
I0
sg55
I0
sg56
I0
sg57
I0
sg58
I1
sg59
I0
sg60
I7
sg61
I26
sg62
I0
sg63
I1
sg64
I1
sg65
I1
sg66
I1
sg67
I0
sg68
I26
sg69
I0
sg70
I0
sg71
I2
sg72
I4
sg73
I3
sg74
I0
sg75
I0
sg76
I2
sg77
I0
sg78
I8
sg79
I0
sg80
I2
sg81
I6
sg82
I0
sg83
I1
sg84
I4
ssg85
(dp104
I0
I60
sI1
I21
sI2
I10
sI3
I7
sI4
I40
sI5
I45
sI6
I6
sI7
I2
sI8
I8
sI9
I29
sI10
I30
sI11
I3
sI12
I1
sI13
I6
sI14
I7
sI15
I11
sssI128
(dp105
g3
(dp106
g5
I0
sg6
I46
sg7
I0
sg8
I0
sg9
I4
sg10
I0
sg11
I0
sg12
I5
sg13
I2
sg14
I5
sg15
I1
sg16
I1
sg17
I1
sg18
I0
sg19
I60
sg20
I0
sg21
I73
sg22
I15
sg23
I1
sg24
I3
sg25
I8
sg26
I1
sg27
I0
sg28
I0
sg29
I54
sg30
I2
sg31
I0
sg32
I2
sg33
I5
sg34
I12
sg35
I0
sg36
I0
sg37
I0
sg38
I16
sg39
I5
sg40
I7
sg41
I69
sg42
I0
sg43
I0
sg44
I0
sg45
I0
sg46
I0
sg47
I1
sg48
I2
sg49
I0
sg50
I0
sg51
I5
sg52
I3
sg53
I0
sg54
I0
sg55
I0
sg56
I0
sg57
I0
sg58
I1
sg59
I0
sg60
I16
sg61
I77
sg62
I0
sg63
I1
sg64
I1
sg65
I1
sg66
I4
sg67
I0
sg68
I78
sg69
I0
sg70
I0
sg71
I3
sg72
I6
sg73
I4
sg74
I0
sg75
I0
sg76
I3
sg77
I0
sg78
I10
sg79
I0
sg80
I2
sg81
I13
sg82
I0
sg83
I1
sg84
I6
ssg85
(dp107
I0
I124
sI1
I54
sI2
I13
sI3
I9
sI4
I71
sI5
I105
sI6
I13
sI7
I2
sI8
I10
sI9
I81
sI10
I89
sI11
I5
sI12
I1
sI13
I6
sI14
I17
sI15
I22
sssI256
(dp108
g3
(dp109
g5
I0
sg6
I78
sg7
I0
sg8
I0
sg9
I4
sg10
I0
sg11
I0
sg12
I6
sg13
I2
sg14
I5
sg15
I1
sg16
I1
sg17
I1
sg18
I0
sg19
I151
sg20
I0
sg21
I166
sg22
I19
sg23
I1
sg24
I3
sg25
I11
sg26
I1
sg27
I0
sg28
I0
sg29
I89
sg30
I2
sg31
I0
sg32
I2
sg33
I6
sg34
I71
sg35
I0
sg36
I0
sg37
I0
sg38
I18
sg39
I5
sg40
I7
sg41
I189
sg42
I0
sg43
I0
sg44
I0
sg45
I0
sg46
I0
sg47
I1
sg48
I2
sg49
I0
sg50
I0
sg51
I7
sg52
I3
sg53
I0
sg54
I0
sg55
I0
sg56
I2
sg57
I0
sg58
I1
sg59
I0
sg60
I20
sg61
I141
sg62
I0
sg63
I1
sg64
I1
sg65
I1
sg66
I5
sg67
I0
sg68
I143
sg69
I0
sg70
I0
sg71
I3
sg72
I6
sg73
I5
sg74
I0
sg75
I0
sg76
I4
sg77
I0
sg78
I12
sg79
I0
sg80
I2
sg81
I70
sg82
I0
sg83
I1
sg84
I6
ssg85
(dp110
I0
I252
sI1
I89
sI2
I16
sI3
I9
sI4
I164
sI5
I228
sI6
I72
sI7
I2
sI8
I12
sI9
I146
sI10
I213
sI11
I5
sI12
I1
sI13
I6
sI14
I21
sI15
I26
sssI16
(dp111
g3
(dp112
g5
I0
sg6
I1
sg7
I0
sg8
I0
sg9
I2
sg10
I0
sg11
I0
sg12
I2
sg13
I2
sg14
I4
sg15
I0
sg16
I1
sg17
I0
sg18
I0
sg19
I3
sg20
I0
sg21
I10
sg22
I1
sg23
I1
sg24
I3
sg25
I4
sg26
I1
sg27
I0
sg28
I0
sg29
I5
sg30
I0
sg31
I0
sg32
I2
sg33
I1
sg34
I1
sg35
I0
sg36
I0
sg37
I0
sg38
I1
sg39
I3
sg40
I1
sg41
I1
sg42
I0
sg43
I0
sg44
I0
sg45
I0
sg46
I0
sg47
I1
sg48
I1
sg49
I0
sg50
I0
sg51
I1
sg52
I0
sg53
I0
sg54
I0
sg55
I0
sg56
I0
sg57
I0
sg58
I1
sg59
I0
sg60
I2
sg61
I1
sg62
I0
sg63
I0
sg64
I1
sg65
I1
sg66
I0
sg67
I0
sg68
I2
sg69
I0
sg70
I0
sg71
I1
sg72
I1
sg73
I1
sg74
I0
sg75
I0
sg76
I1
sg77
I0
sg78
I4
sg79
I0
sg80
I1
sg81
I2
sg82
I0
sg83
I0
sg84
I1
ssg85
(dp113
I0
I12
sI1
I5
sI2
I8
sI3
I5
sI4
I8
sI5
I3
sI6
I2
sI7
I2
sI8
I3
sI9
I2
sI10
I2
sI11
I0
sI12
I1
sI13
I1
sI14
I2
sI15
I3
sssI512
(dp114
g3
(dp115
g5
I0
sg6
I247
sg7
I0
sg8
I0
sg9
I4
sg10
I0
sg11
I0
sg12
I7
sg13
I3
sg14
I5
sg15
I1
sg16
I1
sg17
I1
sg18
I0
sg19
I223
sg20
I0
sg21
I242
sg22
I19
sg23
I1
sg24
I3
sg25
I22
sg26
I1
sg27
I0
sg28
I2
sg29
I269
sg30
I2
sg31
I0
sg32
I2
sg33
I6
sg34
I212
sg35
I0
sg36
I0
sg37
I0
sg38
I18
sg39
I7
sg40
I7
sg41
I441
sg42
I0
sg43
I0
sg44
I0
sg45
I0
sg46
I0
sg47
I1
sg48
I2
sg49
I0
sg50
I0
sg51
I7
sg52
I3
sg53
I0
sg54
I0
sg55
I0
sg56
I11
sg57
I0
sg58
I1
sg59
I0
sg60
I20
sg61
I250
sg62
I0
sg63
I1
sg64
I2
sg65
I2
sg66
I5
sg67
I1
sg68
I254
sg69
I0
sg70
I0
sg71
I5
sg72
I6
sg73
I7
sg74
I0
sg75
I0
sg76
I4
sg77
I0
sg78
I16
sg79
I0
sg80
I2
sg81
I202
sg82
I0
sg83
I1
sg84
I6
ssg85
(dp116
I0
I508
sI1
I269
sI2
I27
sI3
I14
sI4
I240
sI5
I469
sI6
I213
sI7
I3
sI8
I16
sI9
I257
sI10
I465
sI11
I5
sI12
I2
sI13
I6
sI14
I21
sI15
I26
sss.